
no_more_please.elf:     file format elf32-littlenios2
no_more_please.elf
architecture: nios2:r1, flags 0x00000112:
EXEC_P, HAS_SYMS, D_PAGED
start address 0x008001c0

Program Header:
    LOAD off    0x00001000 vaddr 0x00800000 paddr 0x00800000 align 2**12
         filesz 0x00000020 memsz 0x00000020 flags r-x
    LOAD off    0x00001020 vaddr 0x00800020 paddr 0x00800020 align 2**12
         filesz 0x00013674 memsz 0x00013674 flags r-x
    LOAD off    0x00014694 vaddr 0x00813694 paddr 0x00815180 align 2**12
         filesz 0x00001aec memsz 0x00001aec flags rw-
    LOAD off    0x00016c6c vaddr 0x00816c6c paddr 0x00816c6c align 2**12
         filesz 0x00000000 memsz 0x0000015c flags rw-

Sections:
Idx Name          Size      VMA       LMA       File off  Algn
  0 .entry        00000020  00800000  00800000  00001000  2**5
                  CONTENTS, ALLOC, LOAD, READONLY, CODE
  1 .exceptions   000001a0  00800020  00800020  00001020  2**2
                  CONTENTS, ALLOC, LOAD, READONLY, CODE
  2 .text         00012d90  008001c0  008001c0  000011c0  2**2
                  CONTENTS, ALLOC, LOAD, READONLY, CODE
  3 .rodata       00000744  00812f50  00812f50  00013f50  2**2
                  CONTENTS, ALLOC, LOAD, READONLY, DATA
  4 .rwdata       00001aec  00813694  00815180  00014694  2**2
                  CONTENTS, ALLOC, LOAD, DATA, SMALL_DATA
  5 .bss          0000015c  00816c6c  00816c6c  00016c6c  2**2
                  ALLOC, SMALL_DATA
  6 .sdram        00000000  00816dc8  00816dc8  00016180  2**0
                  CONTENTS
  7 .comment      00000023  00000000  00000000  00016180  2**0
                  CONTENTS, READONLY
  8 .debug_aranges 00000c40  00000000  00000000  000161a8  2**3
                  CONTENTS, READONLY, DEBUGGING
  9 .debug_info   0001f0e3  00000000  00000000  00016de8  2**0
                  CONTENTS, READONLY, DEBUGGING
 10 .debug_abbrev 00007c65  00000000  00000000  00035ecb  2**0
                  CONTENTS, READONLY, DEBUGGING
 11 .debug_line   0000ade4  00000000  00000000  0003db30  2**0
                  CONTENTS, READONLY, DEBUGGING
 12 .debug_frame  000019d4  00000000  00000000  00048914  2**2
                  CONTENTS, READONLY, DEBUGGING
 13 .debug_str    00002f14  00000000  00000000  0004a2e8  2**0
                  CONTENTS, READONLY, DEBUGGING
 14 .debug_loc    0001c139  00000000  00000000  0004d1fc  2**0
                  CONTENTS, READONLY, DEBUGGING
 15 .debug_alt_sim_info 00000020  00000000  00000000  00069338  2**2
                  CONTENTS, READONLY, DEBUGGING
 16 .debug_ranges 00001e80  00000000  00000000  00069358  2**3
                  CONTENTS, READONLY, DEBUGGING
 17 .thread_model 00000003  00000000  00000000  0006e77a  2**0
                  CONTENTS, READONLY
 18 .cpu          00000003  00000000  00000000  0006e77d  2**0
                  CONTENTS, READONLY
 19 .qsys         00000001  00000000  00000000  0006e780  2**0
                  CONTENTS, READONLY
 20 .simulation_enabled 00000001  00000000  00000000  0006e781  2**0
                  CONTENTS, READONLY
 21 .sysid_hash   00000004  00000000  00000000  0006e782  2**0
                  CONTENTS, READONLY
 22 .sysid_base   00000004  00000000  00000000  0006e786  2**0
                  CONTENTS, READONLY
 23 .sysid_time   00000004  00000000  00000000  0006e78a  2**0
                  CONTENTS, READONLY
 24 .stderr_dev   00000009  00000000  00000000  0006e78e  2**0
                  CONTENTS, READONLY
 25 .stdin_dev    00000009  00000000  00000000  0006e797  2**0
                  CONTENTS, READONLY
 26 .stdout_dev   00000009  00000000  00000000  0006e7a0  2**0
                  CONTENTS, READONLY
 27 .sopc_system_name 00000012  00000000  00000000  0006e7a9  2**0
                  CONTENTS, READONLY
 28 .quartus_project_dir 00000009  00000000  00000000  0006e7bb  2**0
                  CONTENTS, READONLY
 29 .jdi          00004fae  00000000  00000000  0006e7c4  2**0
                  CONTENTS, READONLY
 30 .sopcinfo     0003691b  00000000  00000000  00073772  2**0
                  CONTENTS, READONLY
SYMBOL TABLE:
00800000 l    d  .entry	00000000 .entry
00800020 l    d  .exceptions	00000000 .exceptions
008001c0 l    d  .text	00000000 .text
00812f50 l    d  .rodata	00000000 .rodata
00813694 l    d  .rwdata	00000000 .rwdata
00816c6c l    d  .bss	00000000 .bss
00816dc8 l    d  .sdram	00000000 .sdram
00000000 l    d  .comment	00000000 .comment
00000000 l    d  .debug_aranges	00000000 .debug_aranges
00000000 l    d  .debug_info	00000000 .debug_info
00000000 l    d  .debug_abbrev	00000000 .debug_abbrev
00000000 l    d  .debug_line	00000000 .debug_line
00000000 l    d  .debug_frame	00000000 .debug_frame
00000000 l    d  .debug_str	00000000 .debug_str
00000000 l    d  .debug_loc	00000000 .debug_loc
00000000 l    d  .debug_alt_sim_info	00000000 .debug_alt_sim_info
00000000 l    d  .debug_ranges	00000000 .debug_ranges
00000000 l    df *ABS*	00000000 ../no_more_please_bsp//obj/HAL/src/crt0.o
008001f8 l       .text	00000000 alt_after_alt_main
00000000 l    df *ABS*	00000000 alt_exception_entry.o
00800094 l       .exceptions	00000000 alt_exception_unknown
00000000 l    df *ABS*	00000000 alt_irq_handler.c
00000000 l    df *ABS*	00000000 hello_world.c
00000000 l    df *ABS*	00000000 sf_cos.c
00000000 l    df *ABS*	00000000 sf_floor.c
00000000 l    df *ABS*	00000000 ef_rem_pio2.c
0081304c l     O .rodata	00000318 two_over_pi
00812fcc l     O .rodata	00000080 npio2_hw
00000000 l    df *ABS*	00000000 kf_cos.c
00000000 l    df *ABS*	00000000 kf_rem_pio2.c
00813390 l     O .rodata	0000000c init_jk
00813364 l     O .rodata	0000002c PIo2
00000000 l    df *ABS*	00000000 kf_sin.c
00000000 l    df *ABS*	00000000 sf_fabs.c
00000000 l    df *ABS*	00000000 sf_scalbn.c
00000000 l    df *ABS*	00000000 sf_copysign.c
00000000 l    df *ABS*	00000000 addsf3.c
00000000 l    df *ABS*	00000000 divsf3.c
00000000 l    df *ABS*	00000000 eqsf2.c
00000000 l    df *ABS*	00000000 gesf2.c
00000000 l    df *ABS*	00000000 mulsf3.c
00000000 l    df *ABS*	00000000 subsf3.c
00000000 l    df *ABS*	00000000 fixsfsi.c
00000000 l    df *ABS*	00000000 floatsisf.c
00000000 l    df *ABS*	00000000 adddf3.c
00000000 l    df *ABS*	00000000 muldf3.c
00000000 l    df *ABS*	00000000 extendsfdf2.c
00000000 l    df *ABS*	00000000 truncdfsf2.c
00000000 l    df *ABS*	00000000 libgcc2.c
00000000 l    df *ABS*	00000000 lib2-mul.c
00000000 l    df *ABS*	00000000 libgcc2.c
00000000 l    df *ABS*	00000000 printf.c
00000000 l    df *ABS*	00000000 puts.c
00000000 l    df *ABS*	00000000 strlen.c
00000000 l    df *ABS*	00000000 vfprintf.c
008134e2 l     O .rodata	00000010 zeroes.4404
00806cd0 l     F .text	000000bc __sbprintf
008134f2 l     O .rodata	00000010 blanks.4403
00000000 l    df *ABS*	00000000 wsetup.c
00000000 l    df *ABS*	00000000 dtoa.c
00806ee0 l     F .text	00000228 quorem
00000000 l    df *ABS*	00000000 fflush.c
00000000 l    df *ABS*	00000000 findfp.c
00808a38 l     F .text	00000008 __fp_unlock
00808a4c l     F .text	0000019c __sinit.part.1
00808be8 l     F .text	00000008 __fp_lock
00000000 l    df *ABS*	00000000 mallocr.c
00000000 l    df *ABS*	00000000 fvwrite.c
00000000 l    df *ABS*	00000000 fwalk.c
00000000 l    df *ABS*	00000000 impure.c
00813694 l     O .rwdata	00000424 impure_data
00000000 l    df *ABS*	00000000 locale.c
00813ad8 l     O .rwdata	00000020 lc_ctype_charset
00813ab8 l     O .rwdata	00000020 lc_message_charset
00813af8 l     O .rwdata	00000038 lconv
00000000 l    df *ABS*	00000000 makebuf.c
00000000 l    df *ABS*	00000000 mallocr.c
00000000 l    df *ABS*	00000000 memchr.c
00000000 l    df *ABS*	00000000 memcpy.c
00000000 l    df *ABS*	00000000 memmove.c
00000000 l    df *ABS*	00000000 memset.c
00000000 l    df *ABS*	00000000 mprec.c
00813524 l     O .rodata	0000000c p05.2768
00000000 l    df *ABS*	00000000 mallocr.c
00000000 l    df *ABS*	00000000 s_fpclassify.c
00000000 l    df *ABS*	00000000 sbrkr.c
00000000 l    df *ABS*	00000000 stdio.c
00000000 l    df *ABS*	00000000 strcmp.c
00000000 l    df *ABS*	00000000 vfprintf.c
0080c0bc l     F .text	000000fc __sprint_r.part.0
00813648 l     O .rodata	00000010 zeroes.4349
0080d6f8 l     F .text	000000bc __sbprintf
00813658 l     O .rodata	00000010 blanks.4348
00000000 l    df *ABS*	00000000 writer.c
00000000 l    df *ABS*	00000000 closer.c
00000000 l    df *ABS*	00000000 mallocr.c
00000000 l    df *ABS*	00000000 fclose.c
00000000 l    df *ABS*	00000000 fputwc.c
00000000 l    df *ABS*	00000000 fstatr.c
00000000 l    df *ABS*	00000000 int_errno.c
00000000 l    df *ABS*	00000000 isattyr.c
00000000 l    df *ABS*	00000000 lseekr.c
00000000 l    df *ABS*	00000000 readr.c
00000000 l    df *ABS*	00000000 wbuf.c
00000000 l    df *ABS*	00000000 wcrtomb.c
00000000 l    df *ABS*	00000000 wctomb_r.c
00000000 l    df *ABS*	00000000 libgcc2.c
00000000 l    df *ABS*	00000000 libgcc2.c
00000000 l    df *ABS*	00000000 lib2-divmod.c
00000000 l    df *ABS*	00000000 divdf3.c
00000000 l    df *ABS*	00000000 eqdf2.c
00000000 l    df *ABS*	00000000 gedf2.c
00000000 l    df *ABS*	00000000 ledf2.c
00000000 l    df *ABS*	00000000 subdf3.c
00000000 l    df *ABS*	00000000 fixdfsi.c
00000000 l    df *ABS*	00000000 floatsidf.c
00000000 l    df *ABS*	00000000 floatunsidf.c
00000000 l    df *ABS*	00000000 alt_close.c
0081059c l     F .text	00000050 alt_get_errno
00000000 l    df *ABS*	00000000 alt_dev.c
008106c4 l     F .text	0000002c alt_dev_null_write
00000000 l    df *ABS*	00000000 alt_errno.c
00000000 l    df *ABS*	00000000 alt_fstat.c
008106f0 l     F .text	00000050 alt_get_errno
00000000 l    df *ABS*	00000000 alt_isatty.c
008107f8 l     F .text	00000050 alt_get_errno
00000000 l    df *ABS*	00000000 alt_load.c
008108f4 l     F .text	00000068 alt_load_section
00000000 l    df *ABS*	00000000 alt_lseek.c
008109e0 l     F .text	00000050 alt_get_errno
00000000 l    df *ABS*	00000000 alt_main.c
00000000 l    df *ABS*	00000000 alt_malloc_lock.c
00000000 l    df *ABS*	00000000 alt_read.c
00810bd0 l     F .text	00000050 alt_get_errno
00000000 l    df *ABS*	00000000 alt_release_fd.c
00000000 l    df *ABS*	00000000 alt_sbrk.c
00815170 l     O .rwdata	00000004 heap_end
00000000 l    df *ABS*	00000000 alt_times.c
00810e58 l     F .text	00000050 alt_get_errno
00000000 l    df *ABS*	00000000 alt_write.c
00810f30 l     F .text	00000050 alt_get_errno
00000000 l    df *ABS*	00000000 alt_sys_init.c
00811080 l     F .text	00000038 alt_dev_reg
008140e0 l     O .rwdata	00001060 jtag_uart
00000000 l    df *ABS*	00000000 altera_avalon_jtag_uart_fd.c
00000000 l    df *ABS*	00000000 altera_avalon_jtag_uart_init.c
00811380 l     F .text	0000020c altera_avalon_jtag_uart_irq
0081158c l     F .text	000000a8 altera_avalon_jtag_uart_timeout
00000000 l    df *ABS*	00000000 altera_avalon_jtag_uart_ioctl.c
00000000 l    df *ABS*	00000000 altera_avalon_jtag_uart_read.c
00000000 l    df *ABS*	00000000 altera_avalon_jtag_uart_write.c
00000000 l    df *ABS*	00000000 altera_avalon_timer_sc.c
00811bcc l     F .text	00000078 alt_avalon_timer_sc_irq
00000000 l    df *ABS*	00000000 alt_alarm_start.c
00000000 l    df *ABS*	00000000 alt_dcache_flush_all.c
00000000 l    df *ABS*	00000000 alt_dev_llist_insert.c
00811e30 l     F .text	00000050 alt_get_errno
00000000 l    df *ABS*	00000000 alt_do_ctors.c
00000000 l    df *ABS*	00000000 alt_do_dtors.c
00000000 l    df *ABS*	00000000 alt_icache_flush_all.c
00000000 l    df *ABS*	00000000 alt_iic.c
00000000 l    df *ABS*	00000000 alt_iic_isr_register.c
00000000 l    df *ABS*	00000000 alt_io_redirect.c
008122e8 l     F .text	000000e4 alt_open_fd
00000000 l    df *ABS*	00000000 alt_irq_vars.c
00000000 l    df *ABS*	00000000 alt_open.c
00812448 l     F .text	00000050 alt_get_errno
00812498 l     F .text	000000f4 alt_file_locked
00000000 l    df *ABS*	00000000 alt_tick.c
00000000 l    df *ABS*	00000000 altera_nios2_qsys_irq.c
00000000 l    df *ABS*	00000000 alt_find_dev.c
00000000 l    df *ABS*	00000000 alt_find_file.c
00000000 l    df *ABS*	00000000 alt_get_fd.c
00000000 l    df *ABS*	00000000 alt_icache_flush.c
00000000 l    df *ABS*	00000000 atexit.c
00000000 l    df *ABS*	00000000 exit.c
00000000 l    df *ABS*	00000000 memcmp.c
00000000 l    df *ABS*	00000000 __atexit.c
00000000 l    df *ABS*	00000000 __call_atexit.c
00000000 l    df *ABS*	00000000 alt_exit.c
0080b700 g     F .text	00000074 _mprec_log10
0080b7ec g     F .text	0000008c __any_on
0080dcac g     F .text	00000054 _isatty_r
00813530 g     O .rodata	00000028 __mprec_tinytens
00810b0c g     F .text	0000007c alt_main
0080486c g     F .text	000000c0 _puts_r
00816cc8 g     O .bss	00000100 alt_irq
0080dd00 g     F .text	00000060 _lseek_r
00815180 g       *ABS*	00000000 __flash_rwdata_start
0080f844 g     F .text	00000088 .hidden __eqdf2
00816dc8 g       *ABS*	00000000 __alt_heap_start
00804830 g     F .text	0000003c printf
0080df18 g     F .text	0000009c _wcrtomb_r
0080bf7c g     F .text	0000005c __sseek
00808d98 g     F .text	00000010 __sinit
0080ddc0 g     F .text	00000140 __swbuf_r
0080986c g     F .text	0000007c _setlocale_r
00808bf0 g     F .text	00000078 __sfmoreglue
00810bac g     F .text	00000024 __malloc_unlock
0080238c g     F .text	00000440 .hidden __divsf3
0080a53c g     F .text	0000015c memmove
00808d80 g     F .text	00000018 _cleanup
0080a7c0 g     F .text	000000a8 _Balloc
00803214 g     F .text	00000070 .hidden __fixsfsi
0080f8cc g     F .text	000000dc .hidden __gtdf2
00800000 g     F .entry	0000001c __reset
00810ea8 g     F .text	00000088 times
008008b4 g     F .text	00000524 __ieee754_rem_pio2f
00800020 g       *ABS*	00000000 __flash_exceptions_start
0080dc50 g     F .text	0000005c _fstat_r
00816c84 g     O .bss	00000004 errno
0080bef8 g     F .text	00000008 __seofread
00816c8c g     O .bss	00000004 alt_argv
0081d140 g       *ABS*	00000000 _gp
00802d30 g     F .text	000004e4 .hidden __subsf3
00813f60 g     O .rwdata	00000180 alt_fd_list
008128b4 g     F .text	00000090 alt_find_dev
0080a3f4 g     F .text	00000148 memcpy
00808a40 g     F .text	0000000c _cleanup_r
00810418 g     F .text	000000dc .hidden __floatsidf
008123cc g     F .text	0000007c alt_io_redirect
0080f9a8 g     F .text	000000f4 .hidden __ltdf2
00812f50 g       *ABS*	00000000 __DTOR_END__
0080492c g     F .text	00000014 puts
0080bddc g     F .text	00000074 __fpclassifyd
0080b65c g     F .text	000000a4 __ratio
0080d6dc g     F .text	0000001c __vfiprintf_internal
0081178c g     F .text	0000021c altera_avalon_jtag_uart_read
00804800 g     F .text	00000030 _printf_r
0080edb8 g     F .text	00000064 .hidden __udivsi3
00810848 g     F .text	000000ac isatty
00813580 g     O .rodata	000000c8 __mprec_tens
008098e8 g     F .text	0000000c __locale_charset
00812b2c g     F .text	00000090 alt_icache_flush
00816c80 g     O .bss	00000004 __malloc_top_pad
00815148 g     O .rwdata	00000004 __mb_cur_max
00809918 g     F .text	0000000c _localeconv_r
0080abf4 g     F .text	0000003c __i2b
0080921c g     F .text	000004c8 __sfvwrite_r
0080be50 g     F .text	00000054 _sbrk_r
00801d58 g     F .text	00000010 fabsf
0080dd60 g     F .text	00000060 _read_r
00815168 g     O .rwdata	00000004 alt_max_fd
0080d944 g     F .text	000000f0 _fclose_r
00808a08 g     F .text	00000030 fflush
00816c7c g     O .bss	00000004 __malloc_max_sbrked_mem
008044bc g     F .text	00000110 .hidden __extendsfdf2
008033a8 g     F .text	000008ac .hidden __adddf3
008027cc g     F .text	00000078 .hidden __nesf2
0080b404 g     F .text	0000010c __b2d
0080e6fc g     F .text	000005c4 .hidden __umoddi3
00810a30 g     F .text	000000dc lseek
00815140 g     O .rwdata	00000004 _global_impure_ptr
0080b878 g     F .text	00000564 _realloc_r
00801ba0 g     F .text	000001b8 __kernel_sinf
00816dc8 g       *ABS*	00000000 __bss_end
008121f8 g     F .text	000000f0 alt_iic_isr_register
00812788 g     F .text	00000108 alt_tick
0080e100 g     F .text	000005fc .hidden __udivdi3
0080dbac g     F .text	00000024 _fputwc_r
00813558 g     O .rodata	00000028 __mprec_bigtens
0080a9d8 g     F .text	00000104 __s2b
008104f4 g     F .text	000000a8 .hidden __floatunsidf
0080b144 g     F .text	00000060 __mcmp
00808db8 g     F .text	00000018 __fp_lock_all
008121ac g     F .text	0000004c alt_ic_irq_enabled
008126ec g     F .text	0000009c alt_alarm_stop
00800700 g     F .text	000000b0 cosf
00816c94 g     O .bss	00000004 alt_irq_active
008000ec g     F .exceptions	000000d4 alt_irq_handler
00813f38 g     O .rwdata	00000028 alt_dev_null
00811e10 g     F .text	00000020 alt_dcache_flush_all
0080aadc g     F .text	00000068 __hi0bits
00810398 g     F .text	00000080 .hidden __fixdfsi
008001fc g     F .text	000001f0 functionVector
00800dd8 g     F .text	000002cc __kernel_cosf
00815180 g       *ABS*	00000000 __ram_rwdata_end
00815160 g     O .rwdata	00000008 alt_dev_list
00810f80 g     F .text	00000100 write
00802844 g     F .text	000000bc .hidden __gtsf2
00813694 g       *ABS*	00000000 __ram_rodata_end
00810740 g     F .text	000000b8 fstat
0080f9a8 g     F .text	000000f4 .hidden __ledf2
0080aebc g     F .text	00000140 __pow5mult
0080c1d0 g     F .text	0000150c ___vfiprintf_internal_r
00816c74 g     O .bss	00000004 __nlocale_changed
0080ee1c g     F .text	00000058 .hidden __umodsi3
00816dc8 g       *ABS*	00000000 end
008112b8 g     F .text	000000c8 altera_avalon_jtag_uart_init
00812f50 g       *ABS*	00000000 __CTOR_LIST__
01000000 g       *ABS*	00000000 __alt_stack_pointer
00811c44 g     F .text	0000008c alt_avalon_timer_sc_init
00804774 g     F .text	00000064 .hidden __clzsi2
008119a8 g     F .text	00000224 altera_avalon_jtag_uart_write
00808da8 g     F .text	00000004 __sfp_lock_acquire
0080a310 g     F .text	000000e4 memchr
008049d8 g     F .text	000022dc ___vfprintf_internal_r
00808f0c g     F .text	00000310 _free_r
008098f4 g     F .text	00000010 __locale_mb_cur_max
00812d9c g     F .text	00000180 __call_exitprocs
00816c70 g     O .bss	00000004 __mlocale_changed
0081514c g     O .rwdata	00000004 __malloc_sbrk_base
008001c0 g     F .text	0000003c _start
00816c98 g     O .bss	00000004 _alt_tick_rate
0080affc g     F .text	00000148 __lshift
00816c9c g     O .bss	00000004 _alt_nticks
00810c20 g     F .text	00000104 read
008110f0 g     F .text	00000064 alt_sys_init
00803284 g     F .text	00000124 .hidden __floatsisf
00812c84 g     F .text	00000118 __register_exitproc
0080ac30 g     F .text	0000028c __multiply
00811634 g     F .text	00000068 altera_avalon_jtag_uart_close
008047d8 g     F .text	00000028 .hidden __mulsi3
00813694 g       *ABS*	00000000 __ram_rwdata_start
00812f50 g       *ABS*	00000000 __ram_rodata_start
00816ca0 g     O .bss	00000028 __malloc_current_mallinfo
008027cc g     F .text	00000078 .hidden __eqsf2
0080b510 g     F .text	0000014c __d2b
00811154 g     F .text	00000060 altera_avalon_jtag_uart_read_fd
00812a58 g     F .text	000000d4 alt_get_fd
0080d814 g     F .text	00000054 _close_r
008003ec g     F .text	000000b8 generateVector
00812c08 g     F .text	0000007c memcmp
00811214 g     F .text	00000050 altera_avalon_jtag_uart_close_fd
00816dc8 g       *ABS*	00000000 __alt_stack_base
00811264 g     F .text	00000054 altera_avalon_jtag_uart_ioctl_fd
00806d8c g     F .text	00000154 __swsetup_r
0080ee74 g     F .text	000009d0 .hidden __divdf3
00808c68 g     F .text	00000118 __sfp
0080b774 g     F .text	00000078 __copybits
00813b30 g     O .rwdata	00000408 __malloc_av_
00808db4 g     F .text	00000004 __sinit_lock_release
00803c54 g     F .text	00000868 .hidden __muldf3
0080bea4 g     F .text	00000054 __sread
00812944 g     F .text	00000114 alt_find_file
00811e80 g     F .text	000000a4 alt_dev_llist_insert
00810b88 g     F .text	00000024 __malloc_lock
00810da8 g     F .text	000000b0 sbrk
00801d68 g     F .text	00000144 scalbnf
008089ac g     F .text	0000005c _fflush_r
0080d868 g     F .text	000000dc _calloc_r
00816c6c g       *ABS*	00000000 __bss_start
0080a698 g     F .text	00000128 memset
008005ac g     F .text	00000154 main
00816c90 g     O .bss	00000004 alt_envp
00816c78 g     O .bss	00000004 __malloc_max_total_mem
008111b4 g     F .text	00000060 altera_avalon_jtag_uart_write_fd
0080df00 g     F .text	00000018 __swbuf
0080bfd8 g     F .text	00000008 __sclose
01000000 g       *ABS*	00000000 __alt_heap_limit
0080da34 g     F .text	00000014 fclose
008045cc g     F .text	000001a8 .hidden __truncdfsf2
00807108 g     F .text	00001688 _dtoa_r
00809b04 g     F .text	0000080c _malloc_r
0080e074 g     F .text	00000030 __ascii_wctomb
0081516c g     O .rwdata	00000004 alt_errno
008096e4 g     F .text	000000c4 _fwalk
0080ecc0 g     F .text	00000084 .hidden __divsi3
00808de8 g     F .text	00000124 _malloc_trim_r
00812f50 g       *ABS*	00000000 __CTOR_END__
00802900 g     F .text	00000430 .hidden __mulsf3
0080bfe0 g     F .text	000000dc strcmp
00812f50 g       *ABS*	00000000 __flash_rodata_start
00812f50 g       *ABS*	00000000 __DTOR_LIST__
0080f844 g     F .text	00000088 .hidden __nedf2
008110b8 g     F .text	00000038 alt_irq_init
00810d24 g     F .text	00000084 alt_release_fd
00801eac g     F .text	00000018 copysignf
0081339c g     O .rodata	00000100 .hidden __clz_tab
00816c6c g     O .bss	00000004 _PathLocale
00812bbc g     F .text	00000014 atexit
00802844 g     F .text	000000bc .hidden __gesf2
008004a4 g     F .text	00000108 sumVector
0080d7b4 g     F .text	00000060 _write_r
00809924 g     F .text	00000018 setlocale
00815144 g     O .rwdata	00000004 _impure_ptr
00816c88 g     O .bss	00000004 alt_argc
00808790 g     F .text	0000021c __sflush_r
00811f84 g     F .text	00000060 _do_dtors
00809910 g     F .text	00000008 __locale_cjk_lang
00800020 g       .exceptions	00000000 alt_irq_entry
0080b3a0 g     F .text	00000064 __ulp
00808dd0 g     F .text	00000018 __fp_unlock_all
00815158 g     O .rwdata	00000008 alt_fs_list
00800020 g       *ABS*	00000000 __ram_exceptions_start
0080993c g     F .text	0000000c localeconv
00812018 g     F .text	00000050 alt_ic_isr_register
00815180 g       *ABS*	00000000 _edata
00816dc8 g       *ABS*	00000000 _end
0080da48 g     F .text	00000164 __fputwc
008001c0 g       *ABS*	00000000 __ram_exceptions_end
0081169c g     F .text	000000f0 altera_avalon_jtag_uart_ioctl
00812108 g     F .text	000000a4 alt_ic_irq_disable
0080bf00 g     F .text	0000007c __swrite
00815150 g     O .rwdata	00000004 __malloc_trim_threshold
00812890 g     F .text	00000024 altera_nios2_qsys_irq_init
00809904 g     F .text	0000000c __locale_msgcharset
00812bd0 g     F .text	00000038 exit
008097a8 g     F .text	000000c4 _fwalk_reent
0080b1a4 g     F .text	000001fc __mdiff
0080ed44 g     F .text	00000074 .hidden __modsi3
01000000 g       *ABS*	00000000 __alt_data_end
00800020 g     F .exceptions	00000000 alt_exception
00808dac g     F .text	00000004 __sfp_lock_release
00800000 g       *ABS*	00000000 __alt_mem_sdram
00812f1c g     F .text	00000034 _exit
008010a4 g     F .text	00000afc __kernel_rem_pio2f
00811cd0 g     F .text	00000140 alt_alarm_start
00809948 g     F .text	000001bc __smakebuf_r
00804940 g     F .text	00000098 strlen
0081258c g     F .text	00000160 open
0080f8cc g     F .text	000000dc .hidden __gedf2
00815154 g     O .rwdata	00000004 __wctomb
0080c1b8 g     F .text	00000018 __sprint_r
00811fe4 g     F .text	00000034 alt_icache_flush_all
008007b0 g     F .text	00000104 floorf
00815174 g     O .rwdata	00000004 alt_priority_mask
00812068 g     F .text	000000a0 alt_ic_irq_enable
00806cb4 g     F .text	0000001c __vfprintf_internal
0080e0a4 g     F .text	0000005c _wctomb_r
0080fa9c g     F .text	000008fc .hidden __subdf3
0080ab44 g     F .text	000000b0 __lo0bits
00815178 g     O .rwdata	00000008 alt_alarm_list
00811f24 g     F .text	00000060 _do_ctors
0080dfb4 g     F .text	000000c0 wcrtomb
008105ec g     F .text	000000d8 close
00801ec4 g     F .text	000004c8 .hidden __addsf3
0081095c g     F .text	00000084 alt_load
0080dbd0 g     F .text	00000080 fputwc
00808db0 g     F .text	00000004 __sinit_lock_acquire
0080a890 g     F .text	00000148 __multadd
0080a868 g     F .text	00000028 _Bfree



Disassembly of section .entry:

00800000 <__reset>:
#if NIOS2_ICACHE_SIZE > 0 && defined(ALT_ALLOW_CODE_AT_RESET) && !defined(ALT_SIM_OPTIMIZE)
    /* Assume the instruction cache size is always a power of two. */
#if NIOS2_ICACHE_SIZE > 0x8000
    movhi r2, %hi(NIOS2_ICACHE_SIZE)
#else
    movui r2, NIOS2_ICACHE_SIZE
  800000:	00900014 	movui	r2,16384
#endif

0:
    initi r2
  800004:	1001483a 	initi	r2
    addi r2, r2, -NIOS2_ICACHE_LINE_SIZE
  800008:	10bff804 	addi	r2,r2,-32
    bgt r2, zero, 0b
  80000c:	00bffd16 	blt	zero,r2,800004 <__alt_data_end+0xff800004>
 * Jump to the _start entry point in the .text section if reset code
 * is allowed or if optimizing for RTL simulation.
 */
#if defined(ALT_ALLOW_CODE_AT_RESET) || defined(ALT_SIM_OPTIMIZE)
    /* Jump to the _start entry point in the .text section. */
    movhi r1, %hi(_start)
  800010:	00402034 	movhi	at,128
    ori r1, r1, %lo(_start)
  800014:	08407014 	ori	at,at,448
    jmp r1
  800018:	0800683a 	jmp	at
  80001c:	00000000 	call	0 <__alt_mem_sdram-0x800000>

Disassembly of section .exceptions:

00800020 <alt_exception>:

#else /* ALT_EXCEPTION_STACK disabled */
        /* 
         * Reserve space on normal stack for registers about to be pushed.
         */
        addi  sp, sp, -76
  800020:	deffed04 	addi	sp,sp,-76
         * documentation for details).
         *
         * Leave a gap in the stack frame at 4(sp) for the muldiv handler to
         * store zero into.
         */
        stw   ra,  0(sp)
  800024:	dfc00015 	stw	ra,0(sp)
        stw   r1,   8(sp)
  800028:	d8400215 	stw	at,8(sp)
        stw   r2,  12(sp)
  80002c:	d8800315 	stw	r2,12(sp)
        stw   r3,  16(sp)
  800030:	d8c00415 	stw	r3,16(sp)
        stw   r4,  20(sp)
  800034:	d9000515 	stw	r4,20(sp)
        stw   r5,  24(sp)
  800038:	d9400615 	stw	r5,24(sp)
        stw   r6,  28(sp)
  80003c:	d9800715 	stw	r6,28(sp)
        stw   r7,  32(sp)
  800040:	d9c00815 	stw	r7,32(sp)
        rdctl r5, estatus   /* Read early to avoid usage stall */
  800044:	000b307a 	rdctl	r5,estatus
        stw   r8,  36(sp)
  800048:	da000915 	stw	r8,36(sp)
        stw   r9,  40(sp)
  80004c:	da400a15 	stw	r9,40(sp)
        stw   r10, 44(sp)
  800050:	da800b15 	stw	r10,44(sp)
        stw   r11, 48(sp)
  800054:	dac00c15 	stw	r11,48(sp)
        stw   r12, 52(sp)
  800058:	db000d15 	stw	r12,52(sp)
        stw   r13, 56(sp)
  80005c:	db400e15 	stw	r13,56(sp)
        stw   r14, 60(sp)
  800060:	db800f15 	stw	r14,60(sp)
        stw   r15, 64(sp)
  800064:	dbc01015 	stw	r15,64(sp)
        /*
         * ea-4 contains the address of the instruction being executed
         * when the exception occured. For interrupt exceptions, we will
         * will be re-issue the isntruction. Store it in 72(sp)
         */
        stw   r5,  68(sp)  /* estatus */
  800068:	d9401115 	stw	r5,68(sp)
        addi  r15, ea, -4  /* instruction that caused exception */
  80006c:	ebffff04 	addi	r15,ea,-4
        stw   r15,  72(sp)
  800070:	dbc01215 	stw	r15,72(sp)
#else
        /*
         * Test to see if the exception was a software exception or caused 
         * by an external interrupt, and vector accordingly.
         */
        rdctl r4, ipending
  800074:	0009313a 	rdctl	r4,ipending
        andi  r2, r5, 1
  800078:	2880004c 	andi	r2,r5,1
        beq   r2, zero, .Lnot_irq
  80007c:	10000326 	beq	r2,zero,80008c <alt_exception+0x6c>
        beq   r4, zero, .Lnot_irq
  800080:	20000226 	beq	r4,zero,80008c <alt_exception+0x6c>
        /*
         * Now that all necessary registers have been preserved, call 
         * alt_irq_handler() to process the interrupts.
         */

        call alt_irq_handler
  800084:	08000ec0 	call	8000ec <alt_irq_handler>

        .section .exceptions.irqreturn, "xa"

        br    .Lexception_exit
  800088:	00000306 	br	800098 <alt_exception_unknown+0x4>
         * upon completion, so we write ea (address of instruction *after*
         * the one where the exception occured) into 72(sp). The actual
         * instruction that caused the exception is written in r2, which these
         * handlers will utilize.
         */
        stw   ea,  72(sp)  /* Don't re-issue */
  80008c:	df401215 	stw	ea,72(sp)
        ldw   r2, -4(ea)   /* Instruction that caused exception */
  800090:	e8bfff17 	ldw	r2,-4(ea)

00800094 <alt_exception_unknown>:
#ifdef NIOS2_HAS_DEBUG_STUB
       /*
        *  Either tell the user now (if there is a debugger attached) or go into
        *  the debug monitor which will loop until a debugger is attached.
        */
        break
  800094:	003da03a 	break	0
        /* 
         * Restore the saved registers, so that all general purpose registers 
         * have been restored to their state at the time the interrupt occured.
         */

        ldw   r5,  68(sp)
  800098:	d9401117 	ldw	r5,68(sp)
        ldw   ea,  72(sp)  /* This becomes the PC once eret is executed */
  80009c:	df401217 	ldw	ea,72(sp)
        ldw   ra,   0(sp)
  8000a0:	dfc00017 	ldw	ra,0(sp)

        wrctl estatus, r5
  8000a4:	2801707a 	wrctl	estatus,r5

        ldw   r1,   8(sp)
  8000a8:	d8400217 	ldw	at,8(sp)
        ldw   r2,  12(sp)
  8000ac:	d8800317 	ldw	r2,12(sp)
        ldw   r3,  16(sp)
  8000b0:	d8c00417 	ldw	r3,16(sp)
        ldw   r4,  20(sp)
  8000b4:	d9000517 	ldw	r4,20(sp)
        ldw   r5,  24(sp)
  8000b8:	d9400617 	ldw	r5,24(sp)
        ldw   r6,  28(sp)
  8000bc:	d9800717 	ldw	r6,28(sp)
        ldw   r7,  32(sp)
  8000c0:	d9c00817 	ldw	r7,32(sp)

#if defined(ALT_EXCEPTION_STACK) && defined(ALT_STACK_CHECK)
        ldw   et, %gprel(alt_exception_old_stack_limit)(gp)
#endif

        ldw   r8,  36(sp)
  8000c4:	da000917 	ldw	r8,36(sp)
        ldw   r9,  40(sp)
  8000c8:	da400a17 	ldw	r9,40(sp)
        ldw   r10, 44(sp)
  8000cc:	da800b17 	ldw	r10,44(sp)
        ldw   r11, 48(sp)
  8000d0:	dac00c17 	ldw	r11,48(sp)
        ldw   r12, 52(sp)
  8000d4:	db000d17 	ldw	r12,52(sp)
        ldw   r13, 56(sp)
  8000d8:	db400e17 	ldw	r13,56(sp)
        ldw   r14, 60(sp)
  8000dc:	db800f17 	ldw	r14,60(sp)
        ldw   r15, 64(sp)
  8000e0:	dbc01017 	ldw	r15,64(sp)
        stw   et, %gprel(alt_stack_limit_value)(gp)
        stw   zero, %gprel(alt_exception_old_stack_limit)(gp)
#endif /* ALT_STACK_CHECK */
        ldw   sp,  76(sp)
#else /* ALT_EXCEPTION_STACK disabled */
        addi  sp, sp, 76
  8000e4:	dec01304 	addi	sp,sp,76

        /*
         * Return to the interrupted instruction.
         */

        eret
  8000e8:	ef80083a 	eret

008000ec <alt_irq_handler>:
  8000ec:	defff904 	addi	sp,sp,-28
  8000f0:	dfc00615 	stw	ra,24(sp)
  8000f4:	df000515 	stw	fp,20(sp)
  8000f8:	df000504 	addi	fp,sp,20
  8000fc:	0001883a 	nop
  800100:	0005313a 	rdctl	r2,ipending
  800104:	e0bffe15 	stw	r2,-8(fp)
  800108:	e0bffe17 	ldw	r2,-8(fp)
  80010c:	e0bffb15 	stw	r2,-20(fp)
  800110:	e03ffd15 	stw	zero,-12(fp)
  800114:	00800044 	movi	r2,1
  800118:	e0bffc15 	stw	r2,-16(fp)
  80011c:	e0fffb17 	ldw	r3,-20(fp)
  800120:	e0bffc17 	ldw	r2,-16(fp)
  800124:	1884703a 	and	r2,r3,r2
  800128:	10001426 	beq	r2,zero,80017c <alt_irq_handler+0x90>
  80012c:	00802074 	movhi	r2,129
  800130:	109b3204 	addi	r2,r2,27848
  800134:	e0fffd17 	ldw	r3,-12(fp)
  800138:	180690fa 	slli	r3,r3,3
  80013c:	10c5883a 	add	r2,r2,r3
  800140:	10c00017 	ldw	r3,0(r2)
  800144:	00802074 	movhi	r2,129
  800148:	109b3204 	addi	r2,r2,27848
  80014c:	e13ffd17 	ldw	r4,-12(fp)
  800150:	200890fa 	slli	r4,r4,3
  800154:	1105883a 	add	r2,r2,r4
  800158:	10800104 	addi	r2,r2,4
  80015c:	10800017 	ldw	r2,0(r2)
  800160:	1009883a 	mov	r4,r2
  800164:	183ee83a 	callr	r3
  800168:	0001883a 	nop
  80016c:	0005313a 	rdctl	r2,ipending
  800170:	e0bfff15 	stw	r2,-4(fp)
  800174:	e0bfff17 	ldw	r2,-4(fp)
  800178:	00000706 	br	800198 <alt_irq_handler+0xac>
  80017c:	e0bffc17 	ldw	r2,-16(fp)
  800180:	1085883a 	add	r2,r2,r2
  800184:	e0bffc15 	stw	r2,-16(fp)
  800188:	e0bffd17 	ldw	r2,-12(fp)
  80018c:	10800044 	addi	r2,r2,1
  800190:	e0bffd15 	stw	r2,-12(fp)
  800194:	003fe106 	br	80011c <__alt_data_end+0xff80011c>
  800198:	e0bffb15 	stw	r2,-20(fp)
  80019c:	e0bffb17 	ldw	r2,-20(fp)
  8001a0:	103fdb1e 	bne	r2,zero,800110 <__alt_data_end+0xff800110>
  8001a4:	0001883a 	nop
  8001a8:	0001883a 	nop
  8001ac:	e037883a 	mov	sp,fp
  8001b0:	dfc00117 	ldw	ra,4(sp)
  8001b4:	df000017 	ldw	fp,0(sp)
  8001b8:	dec00204 	addi	sp,sp,8
  8001bc:	f800283a 	ret

Disassembly of section .text:

008001c0 <_start>:

    /*
     * Now that the caches are initialized, set up the stack pointer and global pointer.
     * The values provided by the linker are assumed to be correctly aligned.
     */
    movhi sp, %hi(__alt_stack_pointer)
  8001c0:	06c04034 	movhi	sp,256
    ori sp, sp, %lo(__alt_stack_pointer)
  8001c4:	dec00014 	ori	sp,sp,0
    movhi gp, %hi(_gp)
  8001c8:	06802074 	movhi	gp,129
    ori gp, gp, %lo(_gp)
  8001cc:	d6b45014 	ori	gp,gp,53568
 */
#ifndef ALT_SIM_OPTIMIZE
    /* Log that the BSS is about to be cleared. */
    ALT_LOG_PUTS(alt_log_msg_bss)

    movhi r2, %hi(__bss_start)
  8001d0:	00802074 	movhi	r2,129
    ori r2, r2, %lo(__bss_start)
  8001d4:	109b1b14 	ori	r2,r2,27756

    movhi r3, %hi(__bss_end)
  8001d8:	00c02074 	movhi	r3,129
    ori r3, r3, %lo(__bss_end)
  8001dc:	18db7214 	ori	r3,r3,28104

    beq r2, r3, 1f
  8001e0:	10c00326 	beq	r2,r3,8001f0 <_start+0x30>

0:
    stw zero, (r2)
  8001e4:	10000015 	stw	zero,0(r2)
    addi r2, r2, 4
  8001e8:	10800104 	addi	r2,r2,4
    bltu r2, r3, 0b
  8001ec:	10fffd36 	bltu	r2,r3,8001e4 <__alt_data_end+0xff8001e4>
     * section aren't defined until alt_load() has been called).
     */
    mov   et, zero
#endif

    call alt_load
  8001f0:	081095c0 	call	81095c <alt_load>

    /* Log that alt_main is about to be called. */
    ALT_LOG_PUTS(alt_log_msg_alt_main)

    /* Call the C entry point. It should never return. */
    call alt_main
  8001f4:	0810b0c0 	call	810b0c <alt_main>

008001f8 <alt_after_alt_main>:

    /* Wait in infinite loop in case alt_main does return. */
alt_after_alt_main:
    br alt_after_alt_main
  8001f8:	003fff06 	br	8001f8 <__alt_data_end+0xff8001f8>

008001fc <functionVector>:

//Test case 3
//#define step 0.001
//#define N 255001

float functionVector(float x[], int M) {
  8001fc:	defff504 	addi	sp,sp,-44
  800200:	dfc00a15 	stw	ra,40(sp)
  800204:	df000915 	stw	fp,36(sp)
  800208:	dd000815 	stw	r20,32(sp)
  80020c:	dcc00715 	stw	r19,28(sp)
  800210:	dc800615 	stw	r18,24(sp)
  800214:	dc400515 	stw	r17,20(sp)
  800218:	dc000415 	stw	r16,16(sp)
  80021c:	df000904 	addi	fp,sp,36
  800220:	e13ff915 	stw	r4,-28(fp)
  800224:	e17ffa15 	stw	r5,-24(fp)

	int i;
	float y = 0.0;
  800228:	e03ff815 	stw	zero,-32(fp)

	if(M>N)
  80022c:	e0bffa17 	ldw	r2,-24(fp)
  800230:	10800d50 	cmplti	r2,r2,53
  800234:	1000021e 	bne	r2,zero,800240 <functionVector+0x44>
		M = N;
  800238:	00800d04 	movi	r2,52
  80023c:	e0bffa15 	stw	r2,-24(fp)

	for(i=0;i<M;i++)
  800240:	e03ff715 	stw	zero,-36(fp)
  800244:	00005906 	br	8003ac <functionVector+0x1b0>
		y += x[i]*(0.5 + x[i]*cosf(floorf(x[i]/4)-32));
  800248:	e13ff817 	ldw	r4,-32(fp)
  80024c:	08044bc0 	call	8044bc <__extendsfdf2>
  800250:	1021883a 	mov	r16,r2
  800254:	1823883a 	mov	r17,r3
  800258:	e0bff717 	ldw	r2,-36(fp)
  80025c:	1085883a 	add	r2,r2,r2
  800260:	1085883a 	add	r2,r2,r2
  800264:	1007883a 	mov	r3,r2
  800268:	e0bff917 	ldw	r2,-28(fp)
  80026c:	10c5883a 	add	r2,r2,r3
  800270:	10c00017 	ldw	r3,0(r2)
  800274:	1809883a 	mov	r4,r3
  800278:	08044bc0 	call	8044bc <__extendsfdf2>
  80027c:	1025883a 	mov	r18,r2
  800280:	1827883a 	mov	r19,r3
  800284:	e0bff717 	ldw	r2,-36(fp)
  800288:	1085883a 	add	r2,r2,r2
  80028c:	1085883a 	add	r2,r2,r2
  800290:	1007883a 	mov	r3,r2
  800294:	e0bff917 	ldw	r2,-28(fp)
  800298:	10c5883a 	add	r2,r2,r3
  80029c:	15000017 	ldw	r20,0(r2)
  8002a0:	e0bff717 	ldw	r2,-36(fp)
  8002a4:	1085883a 	add	r2,r2,r2
  8002a8:	1085883a 	add	r2,r2,r2
  8002ac:	1007883a 	mov	r3,r2
  8002b0:	e0bff917 	ldw	r2,-28(fp)
  8002b4:	10c5883a 	add	r2,r2,r3
  8002b8:	10c00017 	ldw	r3,0(r2)
  8002bc:	01502034 	movhi	r5,16512
  8002c0:	1809883a 	mov	r4,r3
  8002c4:	080238c0 	call	80238c <__divsf3>
  8002c8:	1007883a 	mov	r3,r2
  8002cc:	1805883a 	mov	r2,r3
  8002d0:	1009883a 	mov	r4,r2
  8002d4:	08007b00 	call	8007b0 <floorf>
  8002d8:	1007883a 	mov	r3,r2
  8002dc:	01508034 	movhi	r5,16896
  8002e0:	1809883a 	mov	r4,r3
  8002e4:	0802d300 	call	802d30 <__subsf3>
  8002e8:	1007883a 	mov	r3,r2
  8002ec:	1805883a 	mov	r2,r3
  8002f0:	1009883a 	mov	r4,r2
  8002f4:	08007000 	call	800700 <cosf>
  8002f8:	1007883a 	mov	r3,r2
  8002fc:	180b883a 	mov	r5,r3
  800300:	a009883a 	mov	r4,r20
  800304:	08029000 	call	802900 <__mulsf3>
  800308:	1007883a 	mov	r3,r2
  80030c:	1805883a 	mov	r2,r3
  800310:	1009883a 	mov	r4,r2
  800314:	08044bc0 	call	8044bc <__extendsfdf2>
  800318:	1011883a 	mov	r8,r2
  80031c:	1813883a 	mov	r9,r3
  800320:	000d883a 	mov	r6,zero
  800324:	01cff834 	movhi	r7,16352
  800328:	4009883a 	mov	r4,r8
  80032c:	480b883a 	mov	r5,r9
  800330:	08033a80 	call	8033a8 <__adddf3>
  800334:	1009883a 	mov	r4,r2
  800338:	180b883a 	mov	r5,r3
  80033c:	2005883a 	mov	r2,r4
  800340:	2807883a 	mov	r3,r5
  800344:	100d883a 	mov	r6,r2
  800348:	180f883a 	mov	r7,r3
  80034c:	9009883a 	mov	r4,r18
  800350:	980b883a 	mov	r5,r19
  800354:	0803c540 	call	803c54 <__muldf3>
  800358:	1009883a 	mov	r4,r2
  80035c:	180b883a 	mov	r5,r3
  800360:	2005883a 	mov	r2,r4
  800364:	2807883a 	mov	r3,r5
  800368:	100d883a 	mov	r6,r2
  80036c:	180f883a 	mov	r7,r3
  800370:	8009883a 	mov	r4,r16
  800374:	880b883a 	mov	r5,r17
  800378:	08033a80 	call	8033a8 <__adddf3>
  80037c:	1009883a 	mov	r4,r2
  800380:	180b883a 	mov	r5,r3
  800384:	2005883a 	mov	r2,r4
  800388:	2807883a 	mov	r3,r5
  80038c:	1009883a 	mov	r4,r2
  800390:	180b883a 	mov	r5,r3
  800394:	08045cc0 	call	8045cc <__truncdfsf2>
  800398:	1007883a 	mov	r3,r2
  80039c:	e0fff815 	stw	r3,-32(fp)
	float y = 0.0;

	if(M>N)
		M = N;

	for(i=0;i<M;i++)
  8003a0:	e0bff717 	ldw	r2,-36(fp)
  8003a4:	10800044 	addi	r2,r2,1
  8003a8:	e0bff715 	stw	r2,-36(fp)
  8003ac:	e0fff717 	ldw	r3,-36(fp)
  8003b0:	e0bffa17 	ldw	r2,-24(fp)
  8003b4:	18bfa416 	blt	r3,r2,800248 <__alt_data_end+0xff800248>
		y += x[i]*(0.5 + x[i]*cosf(floorf(x[i]/4)-32));

	return y;
  8003b8:	e0bff817 	ldw	r2,-32(fp)
  8003bc:	1007883a 	mov	r3,r2

}
  8003c0:	1805883a 	mov	r2,r3
  8003c4:	e6fffb04 	addi	sp,fp,-20
  8003c8:	dfc00617 	ldw	ra,24(sp)
  8003cc:	df000517 	ldw	fp,20(sp)
  8003d0:	dd000417 	ldw	r20,16(sp)
  8003d4:	dcc00317 	ldw	r19,12(sp)
  8003d8:	dc800217 	ldw	r18,8(sp)
  8003dc:	dc400117 	ldw	r17,4(sp)
  8003e0:	dc000017 	ldw	r16,0(sp)
  8003e4:	dec00704 	addi	sp,sp,28
  8003e8:	f800283a 	ret

008003ec <generateVector>:

void generateVector(float x[N])
{
  8003ec:	defffb04 	addi	sp,sp,-20
  8003f0:	dfc00415 	stw	ra,16(sp)
  8003f4:	df000315 	stw	fp,12(sp)
  8003f8:	dc000215 	stw	r16,8(sp)
  8003fc:	df000304 	addi	fp,sp,12
  800400:	e13ffe15 	stw	r4,-8(fp)
	int i;
	x[0] = 0;
  800404:	e0bffe17 	ldw	r2,-8(fp)
  800408:	10000015 	stw	zero,0(r2)

	for(i=1;i<N;i++) {
  80040c:	00800044 	movi	r2,1
  800410:	e0bffd15 	stw	r2,-12(fp)
  800414:	00001906 	br	80047c <generateVector+0x90>
		x[i] = x[i-1] + (float) step;
  800418:	e0bffd17 	ldw	r2,-12(fp)
  80041c:	1085883a 	add	r2,r2,r2
  800420:	1085883a 	add	r2,r2,r2
  800424:	1007883a 	mov	r3,r2
  800428:	e0bffe17 	ldw	r2,-8(fp)
  80042c:	10e1883a 	add	r16,r2,r3
  800430:	e0fffd17 	ldw	r3,-12(fp)
  800434:	00900034 	movhi	r2,16384
  800438:	10bfffc4 	addi	r2,r2,-1
  80043c:	1885883a 	add	r2,r3,r2
  800440:	1085883a 	add	r2,r2,r2
  800444:	1085883a 	add	r2,r2,r2
  800448:	1007883a 	mov	r3,r2
  80044c:	e0bffe17 	ldw	r2,-8(fp)
  800450:	10c5883a 	add	r2,r2,r3
  800454:	10c00017 	ldw	r3,0(r2)
  800458:	01502834 	movhi	r5,16544
  80045c:	1809883a 	mov	r4,r3
  800460:	0801ec40 	call	801ec4 <__addsf3>
  800464:	1007883a 	mov	r3,r2
  800468:	1805883a 	mov	r2,r3
  80046c:	80800015 	stw	r2,0(r16)
void generateVector(float x[N])
{
	int i;
	x[0] = 0;

	for(i=1;i<N;i++) {
  800470:	e0bffd17 	ldw	r2,-12(fp)
  800474:	10800044 	addi	r2,r2,1
  800478:	e0bffd15 	stw	r2,-12(fp)
  80047c:	e0bffd17 	ldw	r2,-12(fp)
  800480:	10800d10 	cmplti	r2,r2,52
  800484:	103fe41e 	bne	r2,zero,800418 <__alt_data_end+0xff800418>
		x[i] = x[i-1] + (float) step;
	}
	return;
  800488:	0001883a 	nop
}
  80048c:	e6ffff04 	addi	sp,fp,-4
  800490:	dfc00217 	ldw	ra,8(sp)
  800494:	df000117 	ldw	fp,4(sp)
  800498:	dc000017 	ldw	r16,0(sp)
  80049c:	dec00304 	addi	sp,sp,12
  8004a0:	f800283a 	ret

008004a4 <sumVector>:

float sumVector(float x[], int M)
{
  8004a4:	defff904 	addi	sp,sp,-28
  8004a8:	dfc00615 	stw	ra,24(sp)
  8004ac:	df000515 	stw	fp,20(sp)
  8004b0:	dc000415 	stw	r16,16(sp)
  8004b4:	df000504 	addi	fp,sp,20
  8004b8:	e13ffd15 	stw	r4,-12(fp)
  8004bc:	e17ffe15 	stw	r5,-8(fp)
	int i;
	float y = 0.0;
  8004c0:	e03ffc15 	stw	zero,-16(fp)

	if(M>N)
  8004c4:	e0bffe17 	ldw	r2,-8(fp)
  8004c8:	10800d50 	cmplti	r2,r2,53
  8004cc:	1000021e 	bne	r2,zero,8004d8 <sumVector+0x34>
		M = N;
  8004d0:	00800d04 	movi	r2,52
  8004d4:	e0bffe15 	stw	r2,-8(fp)

	for(i=0;i<M;i++)
  8004d8:	e03ffb15 	stw	zero,-20(fp)
  8004dc:	00002706 	br	80057c <sumVector+0xd8>
		y += x[i] + x[i]*x[i];
  8004e0:	e0bffb17 	ldw	r2,-20(fp)
  8004e4:	1085883a 	add	r2,r2,r2
  8004e8:	1085883a 	add	r2,r2,r2
  8004ec:	1007883a 	mov	r3,r2
  8004f0:	e0bffd17 	ldw	r2,-12(fp)
  8004f4:	10c5883a 	add	r2,r2,r3
  8004f8:	14000017 	ldw	r16,0(r2)
  8004fc:	e0bffb17 	ldw	r2,-20(fp)
  800500:	1085883a 	add	r2,r2,r2
  800504:	1085883a 	add	r2,r2,r2
  800508:	1007883a 	mov	r3,r2
  80050c:	e0bffd17 	ldw	r2,-12(fp)
  800510:	10c5883a 	add	r2,r2,r3
  800514:	10c00017 	ldw	r3,0(r2)
  800518:	e0bffb17 	ldw	r2,-20(fp)
  80051c:	1085883a 	add	r2,r2,r2
  800520:	1085883a 	add	r2,r2,r2
  800524:	1009883a 	mov	r4,r2
  800528:	e0bffd17 	ldw	r2,-12(fp)
  80052c:	1105883a 	add	r2,r2,r4
  800530:	11000017 	ldw	r4,0(r2)
  800534:	200b883a 	mov	r5,r4
  800538:	1809883a 	mov	r4,r3
  80053c:	08029000 	call	802900 <__mulsf3>
  800540:	1007883a 	mov	r3,r2
  800544:	1805883a 	mov	r2,r3
  800548:	100b883a 	mov	r5,r2
  80054c:	8009883a 	mov	r4,r16
  800550:	0801ec40 	call	801ec4 <__addsf3>
  800554:	1007883a 	mov	r3,r2
  800558:	1805883a 	mov	r2,r3
  80055c:	100b883a 	mov	r5,r2
  800560:	e13ffc17 	ldw	r4,-16(fp)
  800564:	0801ec40 	call	801ec4 <__addsf3>
  800568:	1007883a 	mov	r3,r2
  80056c:	e0fffc15 	stw	r3,-16(fp)
	float y = 0.0;

	if(M>N)
		M = N;

	for(i=0;i<M;i++)
  800570:	e0bffb17 	ldw	r2,-20(fp)
  800574:	10800044 	addi	r2,r2,1
  800578:	e0bffb15 	stw	r2,-20(fp)
  80057c:	e0fffb17 	ldw	r3,-20(fp)
  800580:	e0bffe17 	ldw	r2,-8(fp)
  800584:	18bfd616 	blt	r3,r2,8004e0 <__alt_data_end+0xff8004e0>
		y += x[i] + x[i]*x[i];

	return y;
  800588:	e0bffc17 	ldw	r2,-16(fp)
  80058c:	1007883a 	mov	r3,r2
}
  800590:	1805883a 	mov	r2,r3
  800594:	e6ffff04 	addi	sp,fp,-4
  800598:	dfc00217 	ldw	ra,8(sp)
  80059c:	df000117 	ldw	fp,4(sp)
  8005a0:	dc000017 	ldw	r16,0(sp)
  8005a4:	dec00304 	addi	sp,sp,12
  8005a8:	f800283a 	ret

008005ac <main>:

int main()
{
  8005ac:	deffb804 	addi	sp,sp,-288
  8005b0:	dfc04715 	stw	ra,284(sp)
  8005b4:	df004615 	stw	fp,280(sp)
  8005b8:	dc004515 	stw	r16,276(sp)
  8005bc:	df004604 	addi	fp,sp,280
  printf("Task 2!\n");
  8005c0:	01002074 	movhi	r4,129
  8005c4:	210bd404 	addi	r4,r4,12112
  8005c8:	080492c0 	call	80492c <puts>

  float x[N];
  float y = 0;
  8005cc:	e03fba15 	stw	zero,-280(fp)

  printf("generating vector...\n");
  8005d0:	01002074 	movhi	r4,129
  8005d4:	210bd604 	addi	r4,r4,12120
  8005d8:	080492c0 	call	80492c <puts>
  generateVector(x);
  8005dc:	e0bfbe04 	addi	r2,fp,-264
  8005e0:	1009883a 	mov	r4,r2
  8005e4:	08003ec0 	call	8003ec <generateVector>

  char buf[50];
  clock_t exec_t1, exec_t2;

  float tmp = 0;
  8005e8:	e03fbb15 	stw	zero,-276(fp)

  printf("time starts now...");
  8005ec:	01002074 	movhi	r4,129
  8005f0:	210bdc04 	addi	r4,r4,12144
  8005f4:	08048300 	call	804830 <printf>
  exec_t1 = times(NULL);
  8005f8:	0009883a 	mov	r4,zero
  8005fc:	0810ea80 	call	810ea8 <times>
  800600:	e0bfbc15 	stw	r2,-272(fp)
	  y = ALT_CI_AH_FUNC_INSTR_0(x[i],y);
  }
	*/
  //y = functionVector(x, N);

  exec_t2 = times(NULL);
  800604:	0009883a 	mov	r4,zero
  800608:	0810ea80 	call	810ea8 <times>
  80060c:	e0bfbd15 	stw	r2,-268(fp)
  printf("done.\n");
  800610:	01002074 	movhi	r4,129
  800614:	210be104 	addi	r4,r4,12164
  800618:	080492c0 	call	80492c <puts>

  //gcvt((exec_t2 - exec_t1), 10, buf);
  //alt_putstr(" proc time = "); alt_putstr(buf); alt_putstr(" ticks \n");


  printf("time elapsed: %d ticks\n", (int) (exec_t2 - exec_t1));
  80061c:	e0ffbd17 	ldw	r3,-268(fp)
  800620:	e0bfbc17 	ldw	r2,-272(fp)
  800624:	1885c83a 	sub	r2,r3,r2
  800628:	100b883a 	mov	r5,r2
  80062c:	01002074 	movhi	r4,129
  800630:	210be304 	addi	r4,r4,12172
  800634:	08048300 	call	804830 <printf>
  printf("Result: %f\n\n", y);
  800638:	e13fba17 	ldw	r4,-280(fp)
  80063c:	08044bc0 	call	8044bc <__extendsfdf2>
  800640:	100d883a 	mov	r6,r2
  800644:	180f883a 	mov	r7,r3
  800648:	300b883a 	mov	r5,r6
  80064c:	380d883a 	mov	r6,r7
  800650:	01002074 	movhi	r4,129
  800654:	210be904 	addi	r4,r4,12196
  800658:	08048300 	call	804830 <printf>
  printf("diff 0 : %f", ALT_CI_AH_FUNC_INSTR_0(x[0],0.0)-functionVector(x, 1));
  80065c:	e0bfbe17 	ldw	r2,-264(fp)
  800660:	0007883a 	mov	r3,zero
  800664:	10e1c032 	custom	0,r16,r2,r3
  800668:	e0bfbe04 	addi	r2,fp,-264
  80066c:	01400044 	movi	r5,1
  800670:	1009883a 	mov	r4,r2
  800674:	08001fc0 	call	8001fc <functionVector>
  800678:	1007883a 	mov	r3,r2
  80067c:	180b883a 	mov	r5,r3
  800680:	8009883a 	mov	r4,r16
  800684:	0802d300 	call	802d30 <__subsf3>
  800688:	1007883a 	mov	r3,r2
  80068c:	1805883a 	mov	r2,r3
  800690:	1009883a 	mov	r4,r2
  800694:	08044bc0 	call	8044bc <__extendsfdf2>
  800698:	100d883a 	mov	r6,r2
  80069c:	180f883a 	mov	r7,r3
  8006a0:	300b883a 	mov	r5,r6
  8006a4:	380d883a 	mov	r6,r7
  8006a8:	01002074 	movhi	r4,129
  8006ac:	210bed04 	addi	r4,r4,12212
  8006b0:	08048300 	call	804830 <printf>
  printf("diff 1 : %f", ALT_CI_AH_FUNC_INSTR_0(x[1],0.0));
  8006b4:	e0bfbf17 	ldw	r2,-260(fp)
  8006b8:	0007883a 	mov	r3,zero
  8006bc:	10c5c032 	custom	0,r2,r2,r3
  8006c0:	1009883a 	mov	r4,r2
  8006c4:	08044bc0 	call	8044bc <__extendsfdf2>
  8006c8:	100d883a 	mov	r6,r2
  8006cc:	180f883a 	mov	r7,r3
  8006d0:	300b883a 	mov	r5,r6
  8006d4:	380d883a 	mov	r6,r7
  8006d8:	01002074 	movhi	r4,129
  8006dc:	210bf004 	addi	r4,r4,12224
  8006e0:	08048300 	call	804830 <printf>
  return 0;
  8006e4:	0005883a 	mov	r2,zero
}
  8006e8:	e6ffff04 	addi	sp,fp,-4
  8006ec:	dfc00217 	ldw	ra,8(sp)
  8006f0:	df000117 	ldw	fp,4(sp)
  8006f4:	dc000017 	ldw	r16,0(sp)
  8006f8:	dec00304 	addi	sp,sp,12
  8006fc:	f800283a 	ret

00800700 <cosf>:
  800700:	00a00034 	movhi	r2,32768
  800704:	defffd04 	addi	sp,sp,-12
  800708:	10bfffc4 	addi	r2,r2,-1
  80070c:	00cfd274 	movhi	r3,16201
  800710:	dfc00215 	stw	ra,8(sp)
  800714:	1104703a 	and	r2,r2,r4
  800718:	18c3f604 	addi	r3,r3,4056
  80071c:	1880140e 	bge	r3,r2,800770 <cosf+0x70>
  800720:	00dfe034 	movhi	r3,32640
  800724:	18ffffc4 	addi	r3,r3,-1
  800728:	1880050e 	bge	r3,r2,800740 <cosf+0x40>
  80072c:	200b883a 	mov	r5,r4
  800730:	0802d300 	call	802d30 <__subsf3>
  800734:	dfc00217 	ldw	ra,8(sp)
  800738:	dec00304 	addi	sp,sp,12
  80073c:	f800283a 	ret
  800740:	d80b883a 	mov	r5,sp
  800744:	08008b40 	call	8008b4 <__ieee754_rem_pio2f>
  800748:	108000cc 	andi	r2,r2,3
  80074c:	01800044 	movi	r6,1
  800750:	11800f26 	beq	r2,r6,800790 <cosf+0x90>
  800754:	00c00084 	movi	r3,2
  800758:	d9400117 	ldw	r5,4(sp)
  80075c:	d9000017 	ldw	r4,0(sp)
  800760:	10c00826 	beq	r2,r3,800784 <cosf+0x84>
  800764:	10001026 	beq	r2,zero,8007a8 <cosf+0xa8>
  800768:	0801ba00 	call	801ba0 <__kernel_sinf>
  80076c:	003ff106 	br	800734 <__alt_data_end+0xff800734>
  800770:	000b883a 	mov	r5,zero
  800774:	0800dd80 	call	800dd8 <__kernel_cosf>
  800778:	dfc00217 	ldw	ra,8(sp)
  80077c:	dec00304 	addi	sp,sp,12
  800780:	f800283a 	ret
  800784:	0800dd80 	call	800dd8 <__kernel_cosf>
  800788:	10a0003c 	xorhi	r2,r2,32768
  80078c:	003fe906 	br	800734 <__alt_data_end+0xff800734>
  800790:	d9400117 	ldw	r5,4(sp)
  800794:	d9000017 	ldw	r4,0(sp)
  800798:	100d883a 	mov	r6,r2
  80079c:	0801ba00 	call	801ba0 <__kernel_sinf>
  8007a0:	10a0003c 	xorhi	r2,r2,32768
  8007a4:	003fe306 	br	800734 <__alt_data_end+0xff800734>
  8007a8:	0800dd80 	call	800dd8 <__kernel_cosf>
  8007ac:	003fe106 	br	800734 <__alt_data_end+0xff800734>

008007b0 <floorf>:
  8007b0:	defffa04 	addi	sp,sp,-24
  8007b4:	dc800215 	stw	r18,8(sp)
  8007b8:	04a00034 	movhi	r18,32768
  8007bc:	94bfffc4 	addi	r18,r18,-1
  8007c0:	9124703a 	and	r18,r18,r4
  8007c4:	dc400115 	stw	r17,4(sp)
  8007c8:	9022d5fa 	srli	r17,r18,23
  8007cc:	dc000015 	stw	r16,0(sp)
  8007d0:	dfc00515 	stw	ra,20(sp)
  8007d4:	dd000415 	stw	r20,16(sp)
  8007d8:	dcc00315 	stw	r19,12(sp)
  8007dc:	8c7fe044 	addi	r17,r17,-127
  8007e0:	00800584 	movi	r2,22
  8007e4:	2021883a 	mov	r16,r4
  8007e8:	14401216 	blt	r2,r17,800834 <floorf+0x84>
  8007ec:	2029883a 	mov	r20,r4
  8007f0:	88001f16 	blt	r17,zero,800870 <floorf+0xc0>
  8007f4:	04802034 	movhi	r18,128
  8007f8:	94bfffc4 	addi	r18,r18,-1
  8007fc:	9465d83a 	sra	r18,r18,r17
  800800:	9104703a 	and	r2,r18,r4
  800804:	10000e26 	beq	r2,zero,800840 <floorf+0x90>
  800808:	015c52b4 	movhi	r5,29002
  80080c:	297cb284 	addi	r5,r5,-3382
  800810:	0801ec40 	call	801ec4 <__addsf3>
  800814:	000b883a 	mov	r5,zero
  800818:	1009883a 	mov	r4,r2
  80081c:	08028440 	call	802844 <__gesf2>
  800820:	0080070e 	bge	zero,r2,800840 <floorf+0x90>
  800824:	80001c16 	blt	r16,zero,800898 <floorf+0xe8>
  800828:	0484303a 	nor	r2,zero,r18
  80082c:	1504703a 	and	r2,r2,r20
  800830:	00000406 	br	800844 <floorf+0x94>
  800834:	009fe034 	movhi	r2,32640
  800838:	10bfffc4 	addi	r2,r2,-1
  80083c:	14800936 	bltu	r2,r18,800864 <floorf+0xb4>
  800840:	8005883a 	mov	r2,r16
  800844:	dfc00517 	ldw	ra,20(sp)
  800848:	dd000417 	ldw	r20,16(sp)
  80084c:	dcc00317 	ldw	r19,12(sp)
  800850:	dc800217 	ldw	r18,8(sp)
  800854:	dc400117 	ldw	r17,4(sp)
  800858:	dc000017 	ldw	r16,0(sp)
  80085c:	dec00604 	addi	sp,sp,24
  800860:	f800283a 	ret
  800864:	200b883a 	mov	r5,r4
  800868:	0801ec40 	call	801ec4 <__addsf3>
  80086c:	003ff506 	br	800844 <__alt_data_end+0xff800844>
  800870:	015c52b4 	movhi	r5,29002
  800874:	297cb284 	addi	r5,r5,-3382
  800878:	0801ec40 	call	801ec4 <__addsf3>
  80087c:	000b883a 	mov	r5,zero
  800880:	1009883a 	mov	r4,r2
  800884:	08028440 	call	802844 <__gesf2>
  800888:	00bfed0e 	bge	zero,r2,800840 <__alt_data_end+0xff800840>
  80088c:	80000616 	blt	r16,zero,8008a8 <floorf+0xf8>
  800890:	0005883a 	mov	r2,zero
  800894:	003feb06 	br	800844 <__alt_data_end+0xff800844>
  800898:	00802034 	movhi	r2,128
  80089c:	1445d83a 	sra	r2,r2,r17
  8008a0:	1429883a 	add	r20,r2,r16
  8008a4:	003fe006 	br	800828 <__alt_data_end+0xff800828>
  8008a8:	903fe526 	beq	r18,zero,800840 <__alt_data_end+0xff800840>
  8008ac:	00afe034 	movhi	r2,49024
  8008b0:	003fe406 	br	800844 <__alt_data_end+0xff800844>

008008b4 <__ieee754_rem_pio2f>:
  8008b4:	defff104 	addi	sp,sp,-60
  8008b8:	dc000515 	stw	r16,20(sp)
  8008bc:	04200034 	movhi	r16,32768
  8008c0:	843fffc4 	addi	r16,r16,-1
  8008c4:	00cfd274 	movhi	r3,16201
  8008c8:	dfc00e15 	stw	ra,56(sp)
  8008cc:	df000d15 	stw	fp,52(sp)
  8008d0:	ddc00c15 	stw	r23,48(sp)
  8008d4:	dd800b15 	stw	r22,44(sp)
  8008d8:	dd400a15 	stw	r21,40(sp)
  8008dc:	dd000915 	stw	r20,36(sp)
  8008e0:	dcc00815 	stw	r19,32(sp)
  8008e4:	dc800715 	stw	r18,28(sp)
  8008e8:	dc400615 	stw	r17,24(sp)
  8008ec:	8120703a 	and	r16,r16,r4
  8008f0:	18c3f604 	addi	r3,r3,4056
  8008f4:	1c005d0e 	bge	r3,r16,800a6c <__ieee754_rem_pio2f+0x1b8>
  8008f8:	00d005f4 	movhi	r3,16407
  8008fc:	18f2f8c4 	addi	r3,r3,-13341
  800900:	2027883a 	mov	r19,r4
  800904:	2823883a 	mov	r17,r5
  800908:	1c001916 	blt	r3,r16,800970 <__ieee754_rem_pio2f+0xbc>
  80090c:	014ff274 	movhi	r5,16329
  800910:	2943e004 	addi	r5,r5,3968
  800914:	0100c00e 	bge	zero,r4,800c18 <__ieee754_rem_pio2f+0x364>
  800918:	0802d300 	call	802d30 <__subsf3>
  80091c:	1025883a 	mov	r18,r2
  800920:	00bffc04 	movi	r2,-16
  800924:	80a0703a 	and	r16,r16,r2
  800928:	008ff274 	movhi	r2,16329
  80092c:	1083f404 	addi	r2,r2,4048
  800930:	014dcd74 	movhi	r5,14133
  800934:	80806226 	beq	r16,r2,800ac0 <__ieee754_rem_pio2f+0x20c>
  800938:	295110c4 	addi	r5,r5,17475
  80093c:	9009883a 	mov	r4,r18
  800940:	0802d300 	call	802d30 <__subsf3>
  800944:	100b883a 	mov	r5,r2
  800948:	9009883a 	mov	r4,r18
  80094c:	88800015 	stw	r2,0(r17)
  800950:	0802d300 	call	802d30 <__subsf3>
  800954:	014dcd74 	movhi	r5,14133
  800958:	295110c4 	addi	r5,r5,17475
  80095c:	1009883a 	mov	r4,r2
  800960:	0802d300 	call	802d30 <__subsf3>
  800964:	88800115 	stw	r2,4(r17)
  800968:	00800044 	movi	r2,1
  80096c:	00004206 	br	800a78 <__ieee754_rem_pio2f+0x1c4>
  800970:	00d0d274 	movhi	r3,17225
  800974:	18c3e004 	addi	r3,r3,3968
  800978:	1c00640e 	bge	r3,r16,800b0c <__ieee754_rem_pio2f+0x258>
  80097c:	00dfe034 	movhi	r3,32640
  800980:	18ffffc4 	addi	r3,r3,-1
  800984:	1c004816 	blt	r3,r16,800aa8 <__ieee754_rem_pio2f+0x1f4>
  800988:	8025d5fa 	srai	r18,r16,23
  80098c:	94bfde84 	addi	r18,r18,-134
  800990:	900495fa 	slli	r2,r18,23
  800994:	80a1c83a 	sub	r16,r16,r2
  800998:	8009883a 	mov	r4,r16
  80099c:	08032140 	call	803214 <__fixsfsi>
  8009a0:	1009883a 	mov	r4,r2
  8009a4:	08032840 	call	803284 <__floatsisf>
  8009a8:	8009883a 	mov	r4,r16
  8009ac:	100b883a 	mov	r5,r2
  8009b0:	d8800215 	stw	r2,8(sp)
  8009b4:	0802d300 	call	802d30 <__subsf3>
  8009b8:	0150e034 	movhi	r5,17280
  8009bc:	1009883a 	mov	r4,r2
  8009c0:	08029000 	call	802900 <__mulsf3>
  8009c4:	1009883a 	mov	r4,r2
  8009c8:	1029883a 	mov	r20,r2
  8009cc:	08032140 	call	803214 <__fixsfsi>
  8009d0:	1009883a 	mov	r4,r2
  8009d4:	08032840 	call	803284 <__floatsisf>
  8009d8:	100b883a 	mov	r5,r2
  8009dc:	a009883a 	mov	r4,r20
  8009e0:	1021883a 	mov	r16,r2
  8009e4:	d8800315 	stw	r2,12(sp)
  8009e8:	0802d300 	call	802d30 <__subsf3>
  8009ec:	0150e034 	movhi	r5,17280
  8009f0:	1009883a 	mov	r4,r2
  8009f4:	08029000 	call	802900 <__mulsf3>
  8009f8:	000b883a 	mov	r5,zero
  8009fc:	1009883a 	mov	r4,r2
  800a00:	d8800415 	stw	r2,16(sp)
  800a04:	08027cc0 	call	8027cc <__eqsf2>
  800a08:	1000d81e 	bne	r2,zero,800d6c <__ieee754_rem_pio2f+0x4b8>
  800a0c:	000b883a 	mov	r5,zero
  800a10:	8009883a 	mov	r4,r16
  800a14:	08027cc0 	call	8027cc <__eqsf2>
  800a18:	100f003a 	cmpeq	r7,r2,zero
  800a1c:	00800084 	movi	r2,2
  800a20:	11cfc83a 	sub	r7,r2,r7
  800a24:	00800084 	movi	r2,2
  800a28:	d8800015 	stw	r2,0(sp)
  800a2c:	00802074 	movhi	r2,129
  800a30:	108c1304 	addi	r2,r2,12364
  800a34:	d8800115 	stw	r2,4(sp)
  800a38:	900d883a 	mov	r6,r18
  800a3c:	880b883a 	mov	r5,r17
  800a40:	d9000204 	addi	r4,sp,8
  800a44:	08010a40 	call	8010a4 <__kernel_rem_pio2f>
  800a48:	98000b0e 	bge	r19,zero,800a78 <__ieee754_rem_pio2f+0x1c4>
  800a4c:	89000017 	ldw	r4,0(r17)
  800a50:	88c00117 	ldw	r3,4(r17)
  800a54:	0085c83a 	sub	r2,zero,r2
  800a58:	2120003c 	xorhi	r4,r4,32768
  800a5c:	18e0003c 	xorhi	r3,r3,32768
  800a60:	89000015 	stw	r4,0(r17)
  800a64:	88c00115 	stw	r3,4(r17)
  800a68:	00000306 	br	800a78 <__ieee754_rem_pio2f+0x1c4>
  800a6c:	29000015 	stw	r4,0(r5)
  800a70:	28000115 	stw	zero,4(r5)
  800a74:	0005883a 	mov	r2,zero
  800a78:	dfc00e17 	ldw	ra,56(sp)
  800a7c:	df000d17 	ldw	fp,52(sp)
  800a80:	ddc00c17 	ldw	r23,48(sp)
  800a84:	dd800b17 	ldw	r22,44(sp)
  800a88:	dd400a17 	ldw	r21,40(sp)
  800a8c:	dd000917 	ldw	r20,36(sp)
  800a90:	dcc00817 	ldw	r19,32(sp)
  800a94:	dc800717 	ldw	r18,28(sp)
  800a98:	dc400617 	ldw	r17,24(sp)
  800a9c:	dc000517 	ldw	r16,20(sp)
  800aa0:	dec00f04 	addi	sp,sp,60
  800aa4:	f800283a 	ret
  800aa8:	200b883a 	mov	r5,r4
  800aac:	0802d300 	call	802d30 <__subsf3>
  800ab0:	88800115 	stw	r2,4(r17)
  800ab4:	88800015 	stw	r2,0(r17)
  800ab8:	0005883a 	mov	r2,zero
  800abc:	003fee06 	br	800a78 <__alt_data_end+0xff800a78>
  800ac0:	29510004 	addi	r5,r5,17408
  800ac4:	9009883a 	mov	r4,r18
  800ac8:	0802d300 	call	802d30 <__subsf3>
  800acc:	014ba1b4 	movhi	r5,11910
  800ad0:	2968c204 	addi	r5,r5,-23800
  800ad4:	1009883a 	mov	r4,r2
  800ad8:	1021883a 	mov	r16,r2
  800adc:	0802d300 	call	802d30 <__subsf3>
  800ae0:	100b883a 	mov	r5,r2
  800ae4:	8009883a 	mov	r4,r16
  800ae8:	88800015 	stw	r2,0(r17)
  800aec:	0802d300 	call	802d30 <__subsf3>
  800af0:	014ba1b4 	movhi	r5,11910
  800af4:	2968c204 	addi	r5,r5,-23800
  800af8:	1009883a 	mov	r4,r2
  800afc:	0802d300 	call	802d30 <__subsf3>
  800b00:	88800115 	stw	r2,4(r17)
  800b04:	00800044 	movi	r2,1
  800b08:	003fdb06 	br	800a78 <__alt_data_end+0xff800a78>
  800b0c:	0801d580 	call	801d58 <fabsf>
  800b10:	014fc8f4 	movhi	r5,16163
  800b14:	297e6104 	addi	r5,r5,-1660
  800b18:	1009883a 	mov	r4,r2
  800b1c:	102b883a 	mov	r21,r2
  800b20:	08029000 	call	802900 <__mulsf3>
  800b24:	014fc034 	movhi	r5,16128
  800b28:	1009883a 	mov	r4,r2
  800b2c:	0801ec40 	call	801ec4 <__addsf3>
  800b30:	1009883a 	mov	r4,r2
  800b34:	08032140 	call	803214 <__fixsfsi>
  800b38:	1009883a 	mov	r4,r2
  800b3c:	1025883a 	mov	r18,r2
  800b40:	08032840 	call	803284 <__floatsisf>
  800b44:	014ff274 	movhi	r5,16329
  800b48:	2943e004 	addi	r5,r5,3968
  800b4c:	1009883a 	mov	r4,r2
  800b50:	1029883a 	mov	r20,r2
  800b54:	08029000 	call	802900 <__mulsf3>
  800b58:	a809883a 	mov	r4,r21
  800b5c:	100b883a 	mov	r5,r2
  800b60:	0802d300 	call	802d30 <__subsf3>
  800b64:	014dcd74 	movhi	r5,14133
  800b68:	295110c4 	addi	r5,r5,17475
  800b6c:	a009883a 	mov	r4,r20
  800b70:	102f883a 	mov	r23,r2
  800b74:	102d883a 	mov	r22,r2
  800b78:	08029000 	call	802900 <__mulsf3>
  800b7c:	00c007c4 	movi	r3,31
  800b80:	102b883a 	mov	r21,r2
  800b84:	100b883a 	mov	r5,r2
  800b88:	1c800f16 	blt	r3,r18,800bc8 <__ieee754_rem_pio2f+0x314>
  800b8c:	90ffffc4 	addi	r3,r18,-1
  800b90:	18c7883a 	add	r3,r3,r3
  800b94:	01002074 	movhi	r4,129
  800b98:	210bf304 	addi	r4,r4,12236
  800b9c:	18c7883a 	add	r3,r3,r3
  800ba0:	20c7883a 	add	r3,r4,r3
  800ba4:	19000017 	ldw	r4,0(r3)
  800ba8:	00ffc004 	movi	r3,-256
  800bac:	80c6703a 	and	r3,r16,r3
  800bb0:	19000526 	beq	r3,r4,800bc8 <__ieee754_rem_pio2f+0x314>
  800bb4:	b809883a 	mov	r4,r23
  800bb8:	0802d300 	call	802d30 <__subsf3>
  800bbc:	1039883a 	mov	fp,r2
  800bc0:	88800015 	stw	r2,0(r17)
  800bc4:	00000a06 	br	800bf0 <__ieee754_rem_pio2f+0x33c>
  800bc8:	b809883a 	mov	r4,r23
  800bcc:	0802d300 	call	802d30 <__subsf3>
  800bd0:	1006d5fa 	srli	r3,r2,23
  800bd4:	8021d5fa 	srai	r16,r16,23
  800bd8:	01000204 	movi	r4,8
  800bdc:	18c03fcc 	andi	r3,r3,255
  800be0:	80c7c83a 	sub	r3,r16,r3
  800be4:	1039883a 	mov	fp,r2
  800be8:	20c02116 	blt	r4,r3,800c70 <__ieee754_rem_pio2f+0x3bc>
  800bec:	88800015 	stw	r2,0(r17)
  800bf0:	e00b883a 	mov	r5,fp
  800bf4:	b009883a 	mov	r4,r22
  800bf8:	0802d300 	call	802d30 <__subsf3>
  800bfc:	a80b883a 	mov	r5,r21
  800c00:	1009883a 	mov	r4,r2
  800c04:	0802d300 	call	802d30 <__subsf3>
  800c08:	88800115 	stw	r2,4(r17)
  800c0c:	98005916 	blt	r19,zero,800d74 <__ieee754_rem_pio2f+0x4c0>
  800c10:	9005883a 	mov	r2,r18
  800c14:	003f9806 	br	800a78 <__alt_data_end+0xff800a78>
  800c18:	0801ec40 	call	801ec4 <__addsf3>
  800c1c:	1025883a 	mov	r18,r2
  800c20:	00bffc04 	movi	r2,-16
  800c24:	80a0703a 	and	r16,r16,r2
  800c28:	008ff274 	movhi	r2,16329
  800c2c:	1083f404 	addi	r2,r2,4048
  800c30:	014dcd74 	movhi	r5,14133
  800c34:	80805526 	beq	r16,r2,800d8c <__ieee754_rem_pio2f+0x4d8>
  800c38:	295110c4 	addi	r5,r5,17475
  800c3c:	9009883a 	mov	r4,r18
  800c40:	0801ec40 	call	801ec4 <__addsf3>
  800c44:	100b883a 	mov	r5,r2
  800c48:	9009883a 	mov	r4,r18
  800c4c:	88800015 	stw	r2,0(r17)
  800c50:	0802d300 	call	802d30 <__subsf3>
  800c54:	014dcd74 	movhi	r5,14133
  800c58:	295110c4 	addi	r5,r5,17475
  800c5c:	1009883a 	mov	r4,r2
  800c60:	0801ec40 	call	801ec4 <__addsf3>
  800c64:	88800115 	stw	r2,4(r17)
  800c68:	00bfffc4 	movi	r2,-1
  800c6c:	003f8206 	br	800a78 <__alt_data_end+0xff800a78>
  800c70:	014dcd74 	movhi	r5,14133
  800c74:	29510004 	addi	r5,r5,17408
  800c78:	a009883a 	mov	r4,r20
  800c7c:	08029000 	call	802900 <__mulsf3>
  800c80:	100b883a 	mov	r5,r2
  800c84:	b809883a 	mov	r4,r23
  800c88:	102b883a 	mov	r21,r2
  800c8c:	0802d300 	call	802d30 <__subsf3>
  800c90:	100b883a 	mov	r5,r2
  800c94:	b809883a 	mov	r4,r23
  800c98:	102d883a 	mov	r22,r2
  800c9c:	0802d300 	call	802d30 <__subsf3>
  800ca0:	a80b883a 	mov	r5,r21
  800ca4:	1009883a 	mov	r4,r2
  800ca8:	0802d300 	call	802d30 <__subsf3>
  800cac:	014ba1b4 	movhi	r5,11910
  800cb0:	2968c204 	addi	r5,r5,-23800
  800cb4:	a009883a 	mov	r4,r20
  800cb8:	102b883a 	mov	r21,r2
  800cbc:	08029000 	call	802900 <__mulsf3>
  800cc0:	a80b883a 	mov	r5,r21
  800cc4:	1009883a 	mov	r4,r2
  800cc8:	0802d300 	call	802d30 <__subsf3>
  800ccc:	100b883a 	mov	r5,r2
  800cd0:	b009883a 	mov	r4,r22
  800cd4:	102b883a 	mov	r21,r2
  800cd8:	0802d300 	call	802d30 <__subsf3>
  800cdc:	1006d5fa 	srli	r3,r2,23
  800ce0:	1039883a 	mov	fp,r2
  800ce4:	18c03fcc 	andi	r3,r3,255
  800ce8:	80e1c83a 	sub	r16,r16,r3
  800cec:	00c00644 	movi	r3,25
  800cf0:	1c3fbe0e 	bge	r3,r16,800bec <__alt_data_end+0xff800bec>
  800cf4:	014ba1b4 	movhi	r5,11910
  800cf8:	2968c004 	addi	r5,r5,-23808
  800cfc:	a009883a 	mov	r4,r20
  800d00:	08029000 	call	802900 <__mulsf3>
  800d04:	b009883a 	mov	r4,r22
  800d08:	100b883a 	mov	r5,r2
  800d0c:	102b883a 	mov	r21,r2
  800d10:	0802d300 	call	802d30 <__subsf3>
  800d14:	b009883a 	mov	r4,r22
  800d18:	100b883a 	mov	r5,r2
  800d1c:	1021883a 	mov	r16,r2
  800d20:	0802d300 	call	802d30 <__subsf3>
  800d24:	a80b883a 	mov	r5,r21
  800d28:	1009883a 	mov	r4,r2
  800d2c:	0802d300 	call	802d30 <__subsf3>
  800d30:	01492374 	movhi	r5,9357
  800d34:	294c4c84 	addi	r5,r5,12594
  800d38:	a009883a 	mov	r4,r20
  800d3c:	102b883a 	mov	r21,r2
  800d40:	08029000 	call	802900 <__mulsf3>
  800d44:	a80b883a 	mov	r5,r21
  800d48:	1009883a 	mov	r4,r2
  800d4c:	0802d300 	call	802d30 <__subsf3>
  800d50:	100b883a 	mov	r5,r2
  800d54:	8009883a 	mov	r4,r16
  800d58:	102b883a 	mov	r21,r2
  800d5c:	0802d300 	call	802d30 <__subsf3>
  800d60:	802d883a 	mov	r22,r16
  800d64:	1039883a 	mov	fp,r2
  800d68:	003fa006 	br	800bec <__alt_data_end+0xff800bec>
  800d6c:	01c000c4 	movi	r7,3
  800d70:	003f2c06 	br	800a24 <__alt_data_end+0xff800a24>
  800d74:	10a0003c 	xorhi	r2,r2,32768
  800d78:	e720003c 	xorhi	fp,fp,32768
  800d7c:	88800115 	stw	r2,4(r17)
  800d80:	8f000015 	stw	fp,0(r17)
  800d84:	0485c83a 	sub	r2,zero,r18
  800d88:	003f3b06 	br	800a78 <__alt_data_end+0xff800a78>
  800d8c:	29510004 	addi	r5,r5,17408
  800d90:	9009883a 	mov	r4,r18
  800d94:	0801ec40 	call	801ec4 <__addsf3>
  800d98:	014ba1b4 	movhi	r5,11910
  800d9c:	2968c204 	addi	r5,r5,-23800
  800da0:	1009883a 	mov	r4,r2
  800da4:	1021883a 	mov	r16,r2
  800da8:	0801ec40 	call	801ec4 <__addsf3>
  800dac:	100b883a 	mov	r5,r2
  800db0:	8009883a 	mov	r4,r16
  800db4:	88800015 	stw	r2,0(r17)
  800db8:	0802d300 	call	802d30 <__subsf3>
  800dbc:	014ba1b4 	movhi	r5,11910
  800dc0:	2968c204 	addi	r5,r5,-23800
  800dc4:	1009883a 	mov	r4,r2
  800dc8:	0801ec40 	call	801ec4 <__addsf3>
  800dcc:	88800115 	stw	r2,4(r17)
  800dd0:	00bfffc4 	movi	r2,-1
  800dd4:	003f2806 	br	800a78 <__alt_data_end+0xff800a78>

00800dd8 <__kernel_cosf>:
  800dd8:	defff804 	addi	sp,sp,-32
  800ddc:	dc000015 	stw	r16,0(sp)
  800de0:	04200034 	movhi	r16,32768
  800de4:	843fffc4 	addi	r16,r16,-1
  800de8:	008c8034 	movhi	r2,12800
  800dec:	dcc00315 	stw	r19,12(sp)
  800df0:	dc800215 	stw	r18,8(sp)
  800df4:	dfc00715 	stw	ra,28(sp)
  800df8:	dd800615 	stw	r22,24(sp)
  800dfc:	dd400515 	stw	r21,20(sp)
  800e00:	dd000415 	stw	r20,16(sp)
  800e04:	dc400115 	stw	r17,4(sp)
  800e08:	8120703a 	and	r16,r16,r4
  800e0c:	10bfffc4 	addi	r2,r2,-1
  800e10:	2025883a 	mov	r18,r4
  800e14:	2827883a 	mov	r19,r5
  800e18:	14004416 	blt	r2,r16,800f2c <__kernel_cosf+0x154>
  800e1c:	08032140 	call	803214 <__fixsfsi>
  800e20:	10009e26 	beq	r2,zero,80109c <__kernel_cosf+0x2c4>
  800e24:	900b883a 	mov	r5,r18
  800e28:	9009883a 	mov	r4,r18
  800e2c:	08029000 	call	802900 <__mulsf3>
  800e30:	016b5234 	movhi	r5,44360
  800e34:	2975d384 	addi	r5,r5,-10418
  800e38:	1009883a 	mov	r4,r2
  800e3c:	1021883a 	mov	r16,r2
  800e40:	102b883a 	mov	r21,r2
  800e44:	08029000 	call	802900 <__mulsf3>
  800e48:	014c43f4 	movhi	r5,12559
  800e4c:	295d3d84 	addi	r5,r5,29942
  800e50:	1009883a 	mov	r4,r2
  800e54:	0801ec40 	call	801ec4 <__addsf3>
  800e58:	800b883a 	mov	r5,r16
  800e5c:	1009883a 	mov	r4,r2
  800e60:	08029000 	call	802900 <__mulsf3>
  800e64:	014d2534 	movhi	r5,13460
  800e68:	297c9f04 	addi	r5,r5,-3460
  800e6c:	1009883a 	mov	r4,r2
  800e70:	0802d300 	call	802d30 <__subsf3>
  800e74:	800b883a 	mov	r5,r16
  800e78:	1009883a 	mov	r4,r2
  800e7c:	08029000 	call	802900 <__mulsf3>
  800e80:	014df434 	movhi	r5,14288
  800e84:	29434044 	addi	r5,r5,3329
  800e88:	1009883a 	mov	r4,r2
  800e8c:	0801ec40 	call	801ec4 <__addsf3>
  800e90:	800b883a 	mov	r5,r16
  800e94:	1009883a 	mov	r4,r2
  800e98:	08029000 	call	802900 <__mulsf3>
  800e9c:	014eadb4 	movhi	r5,15030
  800ea0:	2942d844 	addi	r5,r5,2913
  800ea4:	1009883a 	mov	r4,r2
  800ea8:	0802d300 	call	802d30 <__subsf3>
  800eac:	800b883a 	mov	r5,r16
  800eb0:	1009883a 	mov	r4,r2
  800eb4:	08029000 	call	802900 <__mulsf3>
  800eb8:	014f4af4 	movhi	r5,15659
  800ebc:	296aaac4 	addi	r5,r5,-21845
  800ec0:	1009883a 	mov	r4,r2
  800ec4:	0801ec40 	call	801ec4 <__addsf3>
  800ec8:	800b883a 	mov	r5,r16
  800ecc:	1009883a 	mov	r4,r2
  800ed0:	08029000 	call	802900 <__mulsf3>
  800ed4:	102d883a 	mov	r22,r2
  800ed8:	a809883a 	mov	r4,r21
  800edc:	014fc034 	movhi	r5,16128
  800ee0:	08029000 	call	802900 <__mulsf3>
  800ee4:	b00b883a 	mov	r5,r22
  800ee8:	a809883a 	mov	r4,r21
  800eec:	1021883a 	mov	r16,r2
  800ef0:	08029000 	call	802900 <__mulsf3>
  800ef4:	980b883a 	mov	r5,r19
  800ef8:	9009883a 	mov	r4,r18
  800efc:	1023883a 	mov	r17,r2
  800f00:	08029000 	call	802900 <__mulsf3>
  800f04:	8809883a 	mov	r4,r17
  800f08:	100b883a 	mov	r5,r2
  800f0c:	0802d300 	call	802d30 <__subsf3>
  800f10:	8009883a 	mov	r4,r16
  800f14:	100b883a 	mov	r5,r2
  800f18:	0802d300 	call	802d30 <__subsf3>
  800f1c:	100b883a 	mov	r5,r2
  800f20:	010fe034 	movhi	r4,16256
  800f24:	0802d300 	call	802d30 <__subsf3>
  800f28:	00004f06 	br	801068 <__kernel_cosf+0x290>
  800f2c:	200b883a 	mov	r5,r4
  800f30:	08029000 	call	802900 <__mulsf3>
  800f34:	016b5234 	movhi	r5,44360
  800f38:	2975d384 	addi	r5,r5,-10418
  800f3c:	1009883a 	mov	r4,r2
  800f40:	1023883a 	mov	r17,r2
  800f44:	102b883a 	mov	r21,r2
  800f48:	08029000 	call	802900 <__mulsf3>
  800f4c:	014c43f4 	movhi	r5,12559
  800f50:	295d3d84 	addi	r5,r5,29942
  800f54:	1009883a 	mov	r4,r2
  800f58:	0801ec40 	call	801ec4 <__addsf3>
  800f5c:	880b883a 	mov	r5,r17
  800f60:	1009883a 	mov	r4,r2
  800f64:	08029000 	call	802900 <__mulsf3>
  800f68:	014d2534 	movhi	r5,13460
  800f6c:	297c9f04 	addi	r5,r5,-3460
  800f70:	1009883a 	mov	r4,r2
  800f74:	0802d300 	call	802d30 <__subsf3>
  800f78:	880b883a 	mov	r5,r17
  800f7c:	1009883a 	mov	r4,r2
  800f80:	08029000 	call	802900 <__mulsf3>
  800f84:	014df434 	movhi	r5,14288
  800f88:	29434044 	addi	r5,r5,3329
  800f8c:	1009883a 	mov	r4,r2
  800f90:	0801ec40 	call	801ec4 <__addsf3>
  800f94:	880b883a 	mov	r5,r17
  800f98:	1009883a 	mov	r4,r2
  800f9c:	08029000 	call	802900 <__mulsf3>
  800fa0:	014eadb4 	movhi	r5,15030
  800fa4:	2942d844 	addi	r5,r5,2913
  800fa8:	1009883a 	mov	r4,r2
  800fac:	0802d300 	call	802d30 <__subsf3>
  800fb0:	880b883a 	mov	r5,r17
  800fb4:	1009883a 	mov	r4,r2
  800fb8:	08029000 	call	802900 <__mulsf3>
  800fbc:	014f4af4 	movhi	r5,15659
  800fc0:	296aaac4 	addi	r5,r5,-21845
  800fc4:	1009883a 	mov	r4,r2
  800fc8:	0801ec40 	call	801ec4 <__addsf3>
  800fcc:	880b883a 	mov	r5,r17
  800fd0:	1009883a 	mov	r4,r2
  800fd4:	08029000 	call	802900 <__mulsf3>
  800fd8:	1029883a 	mov	r20,r2
  800fdc:	102d883a 	mov	r22,r2
  800fe0:	008fa6b4 	movhi	r2,16026
  800fe4:	10a66644 	addi	r2,r2,-26215
  800fe8:	143fbb0e 	bge	r2,r16,800ed8 <__alt_data_end+0xff800ed8>
  800fec:	008fd234 	movhi	r2,16200
  800ff0:	14002716 	blt	r2,r16,801090 <__kernel_cosf+0x2b8>
  800ff4:	00bfc034 	movhi	r2,65280
  800ff8:	80a1883a 	add	r16,r16,r2
  800ffc:	800b883a 	mov	r5,r16
  801000:	010fe034 	movhi	r4,16256
  801004:	0802d300 	call	802d30 <__subsf3>
  801008:	102b883a 	mov	r21,r2
  80100c:	8809883a 	mov	r4,r17
  801010:	014fc034 	movhi	r5,16128
  801014:	08029000 	call	802900 <__mulsf3>
  801018:	800b883a 	mov	r5,r16
  80101c:	1009883a 	mov	r4,r2
  801020:	0802d300 	call	802d30 <__subsf3>
  801024:	8809883a 	mov	r4,r17
  801028:	a00b883a 	mov	r5,r20
  80102c:	1021883a 	mov	r16,r2
  801030:	08029000 	call	802900 <__mulsf3>
  801034:	980b883a 	mov	r5,r19
  801038:	9009883a 	mov	r4,r18
  80103c:	1023883a 	mov	r17,r2
  801040:	08029000 	call	802900 <__mulsf3>
  801044:	100b883a 	mov	r5,r2
  801048:	8809883a 	mov	r4,r17
  80104c:	0802d300 	call	802d30 <__subsf3>
  801050:	100b883a 	mov	r5,r2
  801054:	8009883a 	mov	r4,r16
  801058:	0802d300 	call	802d30 <__subsf3>
  80105c:	100b883a 	mov	r5,r2
  801060:	a809883a 	mov	r4,r21
  801064:	0802d300 	call	802d30 <__subsf3>
  801068:	dfc00717 	ldw	ra,28(sp)
  80106c:	dd800617 	ldw	r22,24(sp)
  801070:	dd400517 	ldw	r21,20(sp)
  801074:	dd000417 	ldw	r20,16(sp)
  801078:	dcc00317 	ldw	r19,12(sp)
  80107c:	dc800217 	ldw	r18,8(sp)
  801080:	dc400117 	ldw	r17,4(sp)
  801084:	dc000017 	ldw	r16,0(sp)
  801088:	dec00804 	addi	sp,sp,32
  80108c:	f800283a 	ret
  801090:	054fce34 	movhi	r21,16184
  801094:	040fa434 	movhi	r16,16016
  801098:	003fdc06 	br	80100c <__alt_data_end+0xff80100c>
  80109c:	008fe034 	movhi	r2,16256
  8010a0:	003ff106 	br	801068 <__alt_data_end+0xff801068>

008010a4 <__kernel_rem_pio2f>:
  8010a4:	deff9904 	addi	sp,sp,-412
  8010a8:	d8c06717 	ldw	r3,412(sp)
  8010ac:	ddc06415 	stw	r23,400(sp)
  8010b0:	dd806315 	stw	r22,396(sp)
  8010b4:	18c5883a 	add	r2,r3,r3
  8010b8:	00c02074 	movhi	r3,129
  8010bc:	18cce404 	addi	r3,r3,13200
  8010c0:	1085883a 	add	r2,r2,r2
  8010c4:	1885883a 	add	r2,r3,r2
  8010c8:	dfc06615 	stw	ra,408(sp)
  8010cc:	df006515 	stw	fp,404(sp)
  8010d0:	dd406215 	stw	r21,392(sp)
  8010d4:	dd006115 	stw	r20,388(sp)
  8010d8:	dcc06015 	stw	r19,384(sp)
  8010dc:	dc805f15 	stw	r18,380(sp)
  8010e0:	dc405e15 	stw	r17,376(sp)
  8010e4:	dc005d15 	stw	r16,372(sp)
  8010e8:	d9c05615 	stw	r7,344(sp)
  8010ec:	30ffff44 	addi	r3,r6,-3
  8010f0:	d9005115 	stw	r4,324(sp)
  8010f4:	d9405415 	stw	r5,336(sp)
  8010f8:	15800017 	ldw	r22,0(r2)
  8010fc:	3dffffc4 	addi	r23,r7,-1
  801100:	1802a516 	blt	r3,zero,801b98 <__kernel_rem_pio2f+0xaf4>
  801104:	1807d0fa 	srai	r3,r3,3
  801108:	d8c05315 	stw	r3,332(sp)
  80110c:	1802a016 	blt	r3,zero,801b90 <__kernel_rem_pio2f+0xaec>
  801110:	da005317 	ldw	r8,332(sp)
  801114:	b5c5883a 	add	r2,r22,r23
  801118:	0206303a 	nor	r3,zero,r8
  80111c:	180690fa 	slli	r3,r3,3
  801120:	45e3c83a 	sub	r17,r8,r23
  801124:	1987883a 	add	r3,r3,r6
  801128:	d8c05215 	stw	r3,328(sp)
  80112c:	10000f16 	blt	r2,zero,80116c <__kernel_rem_pio2f+0xc8>
  801130:	d8c06817 	ldw	r3,416(sp)
  801134:	8c65883a 	add	r18,r17,r17
  801138:	94a5883a 	add	r18,r18,r18
  80113c:	1445883a 	add	r2,r2,r17
  801140:	dcc02804 	addi	r19,sp,160
  801144:	1ca5883a 	add	r18,r3,r18
  801148:	14000044 	addi	r16,r2,1
  80114c:	88011f16 	blt	r17,zero,8015cc <__kernel_rem_pio2f+0x528>
  801150:	91000017 	ldw	r4,0(r18)
  801154:	08032840 	call	803284 <__floatsisf>
  801158:	98800015 	stw	r2,0(r19)
  80115c:	8c400044 	addi	r17,r17,1
  801160:	9cc00104 	addi	r19,r19,4
  801164:	94800104 	addi	r18,r18,4
  801168:	8c3ff81e 	bne	r17,r16,80114c <__alt_data_end+0xff80114c>
  80116c:	b0002116 	blt	r22,zero,8011f4 <__kernel_rem_pio2f+0x150>
  801170:	d9805117 	ldw	r6,324(sp)
  801174:	bde3883a 	add	r17,r23,r23
  801178:	b4c00044 	addi	r19,r22,1
  80117c:	8c63883a 	add	r17,r17,r17
  801180:	9ce7883a 	add	r19,r19,r19
  801184:	8c000104 	addi	r16,r17,4
  801188:	9ce7883a 	add	r19,r19,r19
  80118c:	d9002804 	addi	r4,sp,160
  801190:	d825883a 	mov	r18,sp
  801194:	2463883a 	add	r17,r4,r17
  801198:	dce7883a 	add	r19,sp,r19
  80119c:	3421883a 	add	r16,r6,r16
  8011a0:	dd805515 	stw	r22,340(sp)
  8011a4:	3039883a 	mov	fp,r6
  8011a8:	b8012616 	blt	r23,zero,801644 <__kernel_rem_pio2f+0x5a0>
  8011ac:	e029883a 	mov	r20,fp
  8011b0:	882b883a 	mov	r21,r17
  8011b4:	002d883a 	mov	r22,zero
  8011b8:	a9400017 	ldw	r5,0(r21)
  8011bc:	a1000017 	ldw	r4,0(r20)
  8011c0:	a5000104 	addi	r20,r20,4
  8011c4:	ad7fff04 	addi	r21,r21,-4
  8011c8:	08029000 	call	802900 <__mulsf3>
  8011cc:	b009883a 	mov	r4,r22
  8011d0:	100b883a 	mov	r5,r2
  8011d4:	0801ec40 	call	801ec4 <__addsf3>
  8011d8:	102d883a 	mov	r22,r2
  8011dc:	a43ff61e 	bne	r20,r16,8011b8 <__alt_data_end+0xff8011b8>
  8011e0:	95800015 	stw	r22,0(r18)
  8011e4:	94800104 	addi	r18,r18,4
  8011e8:	8c400104 	addi	r17,r17,4
  8011ec:	94ffee1e 	bne	r18,r19,8011a8 <__alt_data_end+0xff8011a8>
  8011f0:	dd805517 	ldw	r22,340(sp)
  8011f4:	00900034 	movhi	r2,16384
  8011f8:	da005617 	ldw	r8,344(sp)
  8011fc:	10bfff84 	addi	r2,r2,-2
  801200:	b085883a 	add	r2,r22,r2
  801204:	b0ffffc4 	addi	r3,r22,-1
  801208:	1085883a 	add	r2,r2,r2
  80120c:	1085883a 	add	r2,r2,r2
  801210:	4221883a 	add	r16,r8,r8
  801214:	18c7883a 	add	r3,r3,r3
  801218:	da005117 	ldw	r8,324(sp)
  80121c:	d9803c04 	addi	r6,sp,240
  801220:	308d883a 	add	r6,r6,r2
  801224:	18c7883a 	add	r3,r3,r3
  801228:	8421883a 	add	r16,r16,r16
  80122c:	11000104 	addi	r4,r2,4
  801230:	d8c7883a 	add	r3,sp,r3
  801234:	d9805815 	stw	r6,352(sp)
  801238:	d9803c04 	addi	r6,sp,240
  80123c:	4421883a 	add	r16,r8,r16
  801240:	310d883a 	add	r6,r6,r4
  801244:	da3fff04 	addi	r8,sp,-4
  801248:	18c03c04 	addi	r3,r3,240
  80124c:	d9805915 	stw	r6,356(sp)
  801250:	b023883a 	mov	r17,r22
  801254:	da005015 	stw	r8,320(sp)
  801258:	d8c05a15 	stw	r3,360(sp)
  80125c:	dd805715 	stw	r22,348(sp)
  801260:	8c6b883a 	add	r21,r17,r17
  801264:	ad45883a 	add	r2,r21,r21
  801268:	d885883a 	add	r2,sp,r2
  80126c:	15000017 	ldw	r20,0(r2)
  801270:	0440200e 	bge	zero,r17,8012f4 <__kernel_rem_pio2f+0x250>
  801274:	00900034 	movhi	r2,16384
  801278:	10bfffc4 	addi	r2,r2,-1
  80127c:	88a7883a 	add	r19,r17,r2
  801280:	9ce7883a 	add	r19,r19,r19
  801284:	9ce7883a 	add	r19,r19,r19
  801288:	dc803c04 	addi	r18,sp,240
  80128c:	dce7883a 	add	r19,sp,r19
  801290:	014ee034 	movhi	r5,15232
  801294:	a009883a 	mov	r4,r20
  801298:	08029000 	call	802900 <__mulsf3>
  80129c:	1009883a 	mov	r4,r2
  8012a0:	08032140 	call	803214 <__fixsfsi>
  8012a4:	1009883a 	mov	r4,r2
  8012a8:	08032840 	call	803284 <__floatsisf>
  8012ac:	0150e034 	movhi	r5,17280
  8012b0:	1009883a 	mov	r4,r2
  8012b4:	102d883a 	mov	r22,r2
  8012b8:	08029000 	call	802900 <__mulsf3>
  8012bc:	100b883a 	mov	r5,r2
  8012c0:	a009883a 	mov	r4,r20
  8012c4:	0802d300 	call	802d30 <__subsf3>
  8012c8:	1009883a 	mov	r4,r2
  8012cc:	08032140 	call	803214 <__fixsfsi>
  8012d0:	99400017 	ldw	r5,0(r19)
  8012d4:	90800015 	stw	r2,0(r18)
  8012d8:	b009883a 	mov	r4,r22
  8012dc:	0801ec40 	call	801ec4 <__addsf3>
  8012e0:	d8c05017 	ldw	r3,320(sp)
  8012e4:	9cffff04 	addi	r19,r19,-4
  8012e8:	1029883a 	mov	r20,r2
  8012ec:	94800104 	addi	r18,r18,4
  8012f0:	98ffe71e 	bne	r19,r3,801290 <__alt_data_end+0xff801290>
  8012f4:	d9405217 	ldw	r5,328(sp)
  8012f8:	a009883a 	mov	r4,r20
  8012fc:	0801d680 	call	801d68 <scalbnf>
  801300:	014f8034 	movhi	r5,15872
  801304:	1009883a 	mov	r4,r2
  801308:	1025883a 	mov	r18,r2
  80130c:	08029000 	call	802900 <__mulsf3>
  801310:	1009883a 	mov	r4,r2
  801314:	08007b00 	call	8007b0 <floorf>
  801318:	01504034 	movhi	r5,16640
  80131c:	1009883a 	mov	r4,r2
  801320:	08029000 	call	802900 <__mulsf3>
  801324:	100b883a 	mov	r5,r2
  801328:	9009883a 	mov	r4,r18
  80132c:	0802d300 	call	802d30 <__subsf3>
  801330:	1009883a 	mov	r4,r2
  801334:	1025883a 	mov	r18,r2
  801338:	08032140 	call	803214 <__fixsfsi>
  80133c:	1009883a 	mov	r4,r2
  801340:	1027883a 	mov	r19,r2
  801344:	08032840 	call	803284 <__floatsisf>
  801348:	100b883a 	mov	r5,r2
  80134c:	9009883a 	mov	r4,r18
  801350:	0802d300 	call	802d30 <__subsf3>
  801354:	d9805217 	ldw	r6,328(sp)
  801358:	1013883a 	mov	r9,r2
  80135c:	1011883a 	mov	r8,r2
  801360:	01809c0e 	bge	zero,r6,8015d4 <__kernel_rem_pio2f+0x530>
  801364:	88bfffc4 	addi	r2,r17,-1
  801368:	1085883a 	add	r2,r2,r2
  80136c:	1085883a 	add	r2,r2,r2
  801370:	d885883a 	add	r2,sp,r2
  801374:	10803c04 	addi	r2,r2,240
  801378:	11000017 	ldw	r4,0(r2)
  80137c:	00c00204 	movi	r3,8
  801380:	1987c83a 	sub	r3,r3,r6
  801384:	20cbd83a 	sra	r5,r4,r3
  801388:	050001c4 	movi	r20,7
  80138c:	a1a9c83a 	sub	r20,r20,r6
  801390:	28c6983a 	sll	r3,r5,r3
  801394:	9967883a 	add	r19,r19,r5
  801398:	20c7c83a 	sub	r3,r4,r3
  80139c:	1d29d83a 	sra	r20,r3,r20
  8013a0:	10c00015 	stw	r3,0(r2)
  8013a4:	0500270e 	bge	zero,r20,801444 <__kernel_rem_pio2f+0x3a0>
  8013a8:	9cc00044 	addi	r19,r19,1
  8013ac:	0441d10e 	bge	zero,r17,801af4 <__kernel_rem_pio2f+0xa50>
  8013b0:	d8803c04 	addi	r2,sp,240
  8013b4:	0009883a 	mov	r4,zero
  8013b8:	0025883a 	mov	r18,zero
  8013bc:	01c03fc4 	movi	r7,255
  8013c0:	01804004 	movi	r6,256
  8013c4:	00000706 	br	8013e4 <__kernel_rem_pio2f+0x340>
  8013c8:	30cbc83a 	sub	r5,r6,r3
  8013cc:	18000226 	beq	r3,zero,8013d8 <__kernel_rem_pio2f+0x334>
  8013d0:	11400015 	stw	r5,0(r2)
  8013d4:	04800044 	movi	r18,1
  8013d8:	21000044 	addi	r4,r4,1
  8013dc:	10800104 	addi	r2,r2,4
  8013e0:	2440080e 	bge	r4,r17,801404 <__kernel_rem_pio2f+0x360>
  8013e4:	10c00017 	ldw	r3,0(r2)
  8013e8:	903ff726 	beq	r18,zero,8013c8 <__alt_data_end+0xff8013c8>
  8013ec:	38c7c83a 	sub	r3,r7,r3
  8013f0:	10c00015 	stw	r3,0(r2)
  8013f4:	21000044 	addi	r4,r4,1
  8013f8:	04800044 	movi	r18,1
  8013fc:	10800104 	addi	r2,r2,4
  801400:	247ff816 	blt	r4,r17,8013e4 <__alt_data_end+0xff8013e4>
  801404:	d9805217 	ldw	r6,328(sp)
  801408:	01800c0e 	bge	zero,r6,80143c <__kernel_rem_pio2f+0x398>
  80140c:	00800044 	movi	r2,1
  801410:	30807926 	beq	r6,r2,8015f8 <__kernel_rem_pio2f+0x554>
  801414:	00800084 	movi	r2,2
  801418:	3080081e 	bne	r6,r2,80143c <__kernel_rem_pio2f+0x398>
  80141c:	88bfffc4 	addi	r2,r17,-1
  801420:	1085883a 	add	r2,r2,r2
  801424:	1085883a 	add	r2,r2,r2
  801428:	d885883a 	add	r2,sp,r2
  80142c:	10803c04 	addi	r2,r2,240
  801430:	10c00017 	ldw	r3,0(r2)
  801434:	18c00fcc 	andi	r3,r3,63
  801438:	10c00015 	stw	r3,0(r2)
  80143c:	00800084 	movi	r2,2
  801440:	a0805326 	beq	r20,r2,801590 <__kernel_rem_pio2f+0x4ec>
  801444:	4009883a 	mov	r4,r8
  801448:	000b883a 	mov	r5,zero
  80144c:	da005c15 	stw	r8,368(sp)
  801450:	08027cc0 	call	8027cc <__eqsf2>
  801454:	da005c17 	ldw	r8,368(sp)
  801458:	10017a1e 	bne	r2,zero,801a44 <__kernel_rem_pio2f+0x9a0>
  80145c:	da005717 	ldw	r8,348(sp)
  801460:	8cbfffc4 	addi	r18,r17,-1
  801464:	92000e16 	blt	r18,r8,8014a0 <__kernel_rem_pio2f+0x3fc>
  801468:	00d00034 	movhi	r3,16384
  80146c:	18ffffc4 	addi	r3,r3,-1
  801470:	88c5883a 	add	r2,r17,r3
  801474:	1085883a 	add	r2,r2,r2
  801478:	d9405917 	ldw	r5,356(sp)
  80147c:	1085883a 	add	r2,r2,r2
  801480:	d9003c04 	addi	r4,sp,240
  801484:	2085883a 	add	r2,r4,r2
  801488:	0007883a 	mov	r3,zero
  80148c:	11000017 	ldw	r4,0(r2)
  801490:	10bfff04 	addi	r2,r2,-4
  801494:	1906b03a 	or	r3,r3,r4
  801498:	117ffc1e 	bne	r2,r5,80148c <__alt_data_end+0xff80148c>
  80149c:	18006f1e 	bne	r3,zero,80165c <__kernel_rem_pio2f+0x5b8>
  8014a0:	d9805a17 	ldw	r6,360(sp)
  8014a4:	30800017 	ldw	r2,0(r6)
  8014a8:	1001941e 	bne	r2,zero,801afc <__kernel_rem_pio2f+0xa58>
  8014ac:	d8805817 	ldw	r2,352(sp)
  8014b0:	05000044 	movi	r20,1
  8014b4:	10bfff04 	addi	r2,r2,-4
  8014b8:	10c00117 	ldw	r3,4(r2)
  8014bc:	a5000044 	addi	r20,r20,1
  8014c0:	183ffc26 	beq	r3,zero,8014b4 <__alt_data_end+0xff8014b4>
  8014c4:	8d29883a 	add	r20,r17,r20
  8014c8:	88800044 	addi	r2,r17,1
  8014cc:	dd005515 	stw	r20,340(sp)
  8014d0:	a0802b16 	blt	r20,r2,801580 <__kernel_rem_pio2f+0x4dc>
  8014d4:	da005317 	ldw	r8,332(sp)
  8014d8:	d8c05617 	ldw	r3,344(sp)
  8014dc:	d9805517 	ldw	r6,340(sp)
  8014e0:	45400044 	addi	r21,r8,1
  8014e4:	40a5883a 	add	r18,r8,r2
  8014e8:	1c63883a 	add	r17,r3,r17
  8014ec:	da006817 	ldw	r8,416(sp)
  8014f0:	a9ab883a 	add	r21,r21,r6
  8014f4:	94a5883a 	add	r18,r18,r18
  8014f8:	8c63883a 	add	r17,r17,r17
  8014fc:	1085883a 	add	r2,r2,r2
  801500:	ad6b883a 	add	r21,r21,r21
  801504:	94a5883a 	add	r18,r18,r18
  801508:	8c63883a 	add	r17,r17,r17
  80150c:	1085883a 	add	r2,r2,r2
  801510:	ad6b883a 	add	r21,r21,r21
  801514:	d8c02804 	addi	r3,sp,160
  801518:	44a5883a 	add	r18,r8,r18
  80151c:	1c63883a 	add	r17,r3,r17
  801520:	d8a7883a 	add	r19,sp,r2
  801524:	456b883a 	add	r21,r8,r21
  801528:	91000017 	ldw	r4,0(r18)
  80152c:	08032840 	call	803284 <__floatsisf>
  801530:	88800015 	stw	r2,0(r17)
  801534:	b8001416 	blt	r23,zero,801588 <__kernel_rem_pio2f+0x4e4>
  801538:	dd005117 	ldw	r20,324(sp)
  80153c:	882d883a 	mov	r22,r17
  801540:	0039883a 	mov	fp,zero
  801544:	b1400017 	ldw	r5,0(r22)
  801548:	a1000017 	ldw	r4,0(r20)
  80154c:	a5000104 	addi	r20,r20,4
  801550:	b5bfff04 	addi	r22,r22,-4
  801554:	08029000 	call	802900 <__mulsf3>
  801558:	e009883a 	mov	r4,fp
  80155c:	100b883a 	mov	r5,r2
  801560:	0801ec40 	call	801ec4 <__addsf3>
  801564:	1039883a 	mov	fp,r2
  801568:	a43ff61e 	bne	r20,r16,801544 <__alt_data_end+0xff801544>
  80156c:	9f000015 	stw	fp,0(r19)
  801570:	94800104 	addi	r18,r18,4
  801574:	8c400104 	addi	r17,r17,4
  801578:	9cc00104 	addi	r19,r19,4
  80157c:	957fea1e 	bne	r18,r21,801528 <__alt_data_end+0xff801528>
  801580:	dc405517 	ldw	r17,340(sp)
  801584:	003f3606 	br	801260 <__alt_data_end+0xff801260>
  801588:	0039883a 	mov	fp,zero
  80158c:	003ff706 	br	80156c <__alt_data_end+0xff80156c>
  801590:	480b883a 	mov	r5,r9
  801594:	010fe034 	movhi	r4,16256
  801598:	0802d300 	call	802d30 <__subsf3>
  80159c:	1011883a 	mov	r8,r2
  8015a0:	903fa826 	beq	r18,zero,801444 <__alt_data_end+0xff801444>
  8015a4:	d9405217 	ldw	r5,328(sp)
  8015a8:	010fe034 	movhi	r4,16256
  8015ac:	d8805b15 	stw	r2,364(sp)
  8015b0:	0801d680 	call	801d68 <scalbnf>
  8015b4:	d8c05b17 	ldw	r3,364(sp)
  8015b8:	100b883a 	mov	r5,r2
  8015bc:	1809883a 	mov	r4,r3
  8015c0:	0802d300 	call	802d30 <__subsf3>
  8015c4:	1011883a 	mov	r8,r2
  8015c8:	003f9e06 	br	801444 <__alt_data_end+0xff801444>
  8015cc:	0005883a 	mov	r2,zero
  8015d0:	003ee106 	br	801158 <__alt_data_end+0xff801158>
  8015d4:	d8c05217 	ldw	r3,328(sp)
  8015d8:	1800101e 	bne	r3,zero,80161c <__kernel_rem_pio2f+0x578>
  8015dc:	88bfffc4 	addi	r2,r17,-1
  8015e0:	1085883a 	add	r2,r2,r2
  8015e4:	1085883a 	add	r2,r2,r2
  8015e8:	d885883a 	add	r2,sp,r2
  8015ec:	15003c17 	ldw	r20,240(r2)
  8015f0:	a029d23a 	srai	r20,r20,8
  8015f4:	003f6b06 	br	8013a4 <__alt_data_end+0xff8013a4>
  8015f8:	88bfffc4 	addi	r2,r17,-1
  8015fc:	1085883a 	add	r2,r2,r2
  801600:	1085883a 	add	r2,r2,r2
  801604:	d885883a 	add	r2,sp,r2
  801608:	10803c04 	addi	r2,r2,240
  80160c:	10c00017 	ldw	r3,0(r2)
  801610:	18c01fcc 	andi	r3,r3,127
  801614:	10c00015 	stw	r3,0(r2)
  801618:	003f8806 	br	80143c <__alt_data_end+0xff80143c>
  80161c:	014fc034 	movhi	r5,16128
  801620:	1009883a 	mov	r4,r2
  801624:	d8805c15 	stw	r2,368(sp)
  801628:	d8805b15 	stw	r2,364(sp)
  80162c:	08028440 	call	802844 <__gesf2>
  801630:	da005c17 	ldw	r8,368(sp)
  801634:	da405b17 	ldw	r9,364(sp)
  801638:	10007d0e 	bge	r2,zero,801830 <__kernel_rem_pio2f+0x78c>
  80163c:	0029883a 	mov	r20,zero
  801640:	003f8006 	br	801444 <__alt_data_end+0xff801444>
  801644:	002d883a 	mov	r22,zero
  801648:	95800015 	stw	r22,0(r18)
  80164c:	94800104 	addi	r18,r18,4
  801650:	8c400104 	addi	r17,r17,4
  801654:	94fed41e 	bne	r18,r19,8011a8 <__alt_data_end+0xff8011a8>
  801658:	003ee506 	br	8011f0 <__alt_data_end+0xff8011f0>
  80165c:	9485883a 	add	r2,r18,r18
  801660:	d9805217 	ldw	r6,328(sp)
  801664:	1085883a 	add	r2,r2,r2
  801668:	d885883a 	add	r2,sp,r2
  80166c:	10803c17 	ldw	r2,240(r2)
  801670:	31bffe04 	addi	r6,r6,-8
  801674:	dcc05315 	stw	r19,332(sp)
  801678:	d9805215 	stw	r6,328(sp)
  80167c:	dd805717 	ldw	r22,348(sp)
  801680:	10000e1e 	bne	r2,zero,8016bc <__kernel_rem_pio2f+0x618>
  801684:	00900034 	movhi	r2,16384
  801688:	10bfffc4 	addi	r2,r2,-1
  80168c:	9085883a 	add	r2,r18,r2
  801690:	1085883a 	add	r2,r2,r2
  801694:	1085883a 	add	r2,r2,r2
  801698:	da003c04 	addi	r8,sp,240
  80169c:	4085883a 	add	r2,r8,r2
  8016a0:	3007883a 	mov	r3,r6
  8016a4:	10bfff04 	addi	r2,r2,-4
  8016a8:	11000117 	ldw	r4,4(r2)
  8016ac:	94bfffc4 	addi	r18,r18,-1
  8016b0:	18fffe04 	addi	r3,r3,-8
  8016b4:	203ffb26 	beq	r4,zero,8016a4 <__alt_data_end+0xff8016a4>
  8016b8:	d8c05215 	stw	r3,328(sp)
  8016bc:	d9405217 	ldw	r5,328(sp)
  8016c0:	010fe034 	movhi	r4,16256
  8016c4:	0801d680 	call	801d68 <scalbnf>
  8016c8:	102f883a 	mov	r23,r2
  8016cc:	90011316 	blt	r18,zero,801b1c <__kernel_rem_pio2f+0xa78>
  8016d0:	9491883a 	add	r8,r18,r18
  8016d4:	4207883a 	add	r3,r8,r8
  8016d8:	d8e3883a 	add	r17,sp,r3
  8016dc:	d8803c04 	addi	r2,sp,240
  8016e0:	da005115 	stw	r8,324(sp)
  8016e4:	10f9883a 	add	fp,r2,r3
  8016e8:	dc003b04 	addi	r16,sp,236
  8016ec:	882b883a 	mov	r21,r17
  8016f0:	e1000017 	ldw	r4,0(fp)
  8016f4:	ad7fff04 	addi	r21,r21,-4
  8016f8:	e73fff04 	addi	fp,fp,-4
  8016fc:	08032840 	call	803284 <__floatsisf>
  801700:	b80b883a 	mov	r5,r23
  801704:	1009883a 	mov	r4,r2
  801708:	08029000 	call	802900 <__mulsf3>
  80170c:	b809883a 	mov	r4,r23
  801710:	014ee034 	movhi	r5,15232
  801714:	a8800115 	stw	r2,4(r21)
  801718:	08029000 	call	802900 <__mulsf3>
  80171c:	102f883a 	mov	r23,r2
  801720:	e43ff31e 	bne	fp,r16,8016f0 <__alt_data_end+0xff8016f0>
  801724:	d9bfff04 	addi	r6,sp,-4
  801728:	d9805015 	stw	r6,320(sp)
  80172c:	002b883a 	mov	r21,zero
  801730:	0039883a 	mov	fp,zero
  801734:	b0001316 	blt	r22,zero,801784 <__kernel_rem_pio2f+0x6e0>
  801738:	05c02074 	movhi	r23,129
  80173c:	bdccda04 	addi	r23,r23,13160
  801740:	8827883a 	mov	r19,r17
  801744:	010ff274 	movhi	r4,16329
  801748:	0039883a 	mov	fp,zero
  80174c:	0021883a 	mov	r16,zero
  801750:	00000406 	br	801764 <__kernel_rem_pio2f+0x6c0>
  801754:	9cc00104 	addi	r19,r19,4
  801758:	ac000a16 	blt	r21,r16,801784 <__kernel_rem_pio2f+0x6e0>
  80175c:	b9000017 	ldw	r4,0(r23)
  801760:	bdc00104 	addi	r23,r23,4
  801764:	99400017 	ldw	r5,0(r19)
  801768:	84000044 	addi	r16,r16,1
  80176c:	08029000 	call	802900 <__mulsf3>
  801770:	e009883a 	mov	r4,fp
  801774:	100b883a 	mov	r5,r2
  801778:	0801ec40 	call	801ec4 <__addsf3>
  80177c:	1039883a 	mov	fp,r2
  801780:	b43ff40e 	bge	r22,r16,801754 <__alt_data_end+0xff801754>
  801784:	ad45883a 	add	r2,r21,r21
  801788:	1085883a 	add	r2,r2,r2
  80178c:	d8c05017 	ldw	r3,320(sp)
  801790:	d885883a 	add	r2,sp,r2
  801794:	17001415 	stw	fp,80(r2)
  801798:	8c7fff04 	addi	r17,r17,-4
  80179c:	ad400044 	addi	r21,r21,1
  8017a0:	1c7fe31e 	bne	r3,r17,801730 <__alt_data_end+0xff801730>
  8017a4:	d8c06717 	ldw	r3,412(sp)
  8017a8:	00800084 	movi	r2,2
  8017ac:	10c04516 	blt	r2,r3,8018c4 <__kernel_rem_pio2f+0x820>
  8017b0:	00c02316 	blt	zero,r3,801840 <__kernel_rem_pio2f+0x79c>
  8017b4:	1800101e 	bne	r3,zero,8017f8 <__kernel_rem_pio2f+0x754>
  8017b8:	d9805117 	ldw	r6,324(sp)
  8017bc:	da001404 	addi	r8,sp,80
  8017c0:	0005883a 	mov	r2,zero
  8017c4:	31a1883a 	add	r16,r6,r6
  8017c8:	4421883a 	add	r16,r8,r16
  8017cc:	047fffc4 	movi	r17,-1
  8017d0:	81400017 	ldw	r5,0(r16)
  8017d4:	1009883a 	mov	r4,r2
  8017d8:	94bfffc4 	addi	r18,r18,-1
  8017dc:	0801ec40 	call	801ec4 <__addsf3>
  8017e0:	843fff04 	addi	r16,r16,-4
  8017e4:	947ffa1e 	bne	r18,r17,8017d0 <__alt_data_end+0xff8017d0>
  8017e8:	a0000126 	beq	r20,zero,8017f0 <__kernel_rem_pio2f+0x74c>
  8017ec:	10a0003c 	xorhi	r2,r2,32768
  8017f0:	d8c05417 	ldw	r3,336(sp)
  8017f4:	18800015 	stw	r2,0(r3)
  8017f8:	da005317 	ldw	r8,332(sp)
  8017fc:	408001cc 	andi	r2,r8,7
  801800:	dfc06617 	ldw	ra,408(sp)
  801804:	df006517 	ldw	fp,404(sp)
  801808:	ddc06417 	ldw	r23,400(sp)
  80180c:	dd806317 	ldw	r22,396(sp)
  801810:	dd406217 	ldw	r21,392(sp)
  801814:	dd006117 	ldw	r20,388(sp)
  801818:	dcc06017 	ldw	r19,384(sp)
  80181c:	dc805f17 	ldw	r18,380(sp)
  801820:	dc405e17 	ldw	r17,376(sp)
  801824:	dc005d17 	ldw	r16,372(sp)
  801828:	dec06704 	addi	sp,sp,412
  80182c:	f800283a 	ret
  801830:	9cc00044 	addi	r19,r19,1
  801834:	0440b30e 	bge	zero,r17,801b04 <__kernel_rem_pio2f+0xa60>
  801838:	05000084 	movi	r20,2
  80183c:	003edc06 	br	8013b0 <__alt_data_end+0xff8013b0>
  801840:	d9805117 	ldw	r6,324(sp)
  801844:	da001404 	addi	r8,sp,80
  801848:	dc401304 	addi	r17,sp,76
  80184c:	31a1883a 	add	r16,r6,r6
  801850:	4421883a 	add	r16,r8,r16
  801854:	0005883a 	mov	r2,zero
  801858:	81400017 	ldw	r5,0(r16)
  80185c:	1009883a 	mov	r4,r2
  801860:	843fff04 	addi	r16,r16,-4
  801864:	0801ec40 	call	801ec4 <__addsf3>
  801868:	847ffb1e 	bne	r16,r17,801858 <__alt_data_end+0xff801858>
  80186c:	d9001417 	ldw	r4,80(sp)
  801870:	a0006b26 	beq	r20,zero,801a20 <__kernel_rem_pio2f+0x97c>
  801874:	d9805417 	ldw	r6,336(sp)
  801878:	10e0003c 	xorhi	r3,r2,32768
  80187c:	100b883a 	mov	r5,r2
  801880:	30c00015 	stw	r3,0(r6)
  801884:	0802d300 	call	802d30 <__subsf3>
  801888:	1009883a 	mov	r4,r2
  80188c:	0480090e 	bge	zero,r18,8018b4 <__kernel_rem_pio2f+0x810>
  801890:	dc401504 	addi	r17,sp,84
  801894:	04000044 	movi	r16,1
  801898:	89400017 	ldw	r5,0(r17)
  80189c:	84000044 	addi	r16,r16,1
  8018a0:	8c400104 	addi	r17,r17,4
  8018a4:	0801ec40 	call	801ec4 <__addsf3>
  8018a8:	1009883a 	mov	r4,r2
  8018ac:	943ffa0e 	bge	r18,r16,801898 <__alt_data_end+0xff801898>
  8018b0:	a0000126 	beq	r20,zero,8018b8 <__kernel_rem_pio2f+0x814>
  8018b4:	20a0003c 	xorhi	r2,r4,32768
  8018b8:	da005417 	ldw	r8,336(sp)
  8018bc:	40800115 	stw	r2,4(r8)
  8018c0:	003fcd06 	br	8017f8 <__alt_data_end+0xff8017f8>
  8018c4:	da006717 	ldw	r8,412(sp)
  8018c8:	008000c4 	movi	r2,3
  8018cc:	40bfca1e 	bne	r8,r2,8017f8 <__alt_data_end+0xff8017f8>
  8018d0:	0480a60e 	bge	zero,r18,801b6c <__kernel_rem_pio2f+0xac8>
  8018d4:	d8c05117 	ldw	r3,324(sp)
  8018d8:	04500034 	movhi	r17,16384
  8018dc:	8c7fffc4 	addi	r17,r17,-1
  8018e0:	18c5883a 	add	r2,r3,r3
  8018e4:	9463883a 	add	r17,r18,r17
  8018e8:	d885883a 	add	r2,sp,r2
  8018ec:	8c63883a 	add	r17,r17,r17
  8018f0:	8c63883a 	add	r17,r17,r17
  8018f4:	15c01417 	ldw	r23,80(r2)
  8018f8:	dd401404 	addi	r21,sp,80
  8018fc:	8d800104 	addi	r22,r17,4
  801900:	adad883a 	add	r22,r21,r22
  801904:	ac63883a 	add	r17,r21,r17
  801908:	d9801304 	addi	r6,sp,76
  80190c:	8cc00017 	ldw	r19,0(r17)
  801910:	b80b883a 	mov	r5,r23
  801914:	d9805b15 	stw	r6,364(sp)
  801918:	9809883a 	mov	r4,r19
  80191c:	0801ec40 	call	801ec4 <__addsf3>
  801920:	100b883a 	mov	r5,r2
  801924:	9809883a 	mov	r4,r19
  801928:	1021883a 	mov	r16,r2
  80192c:	0802d300 	call	802d30 <__subsf3>
  801930:	b80b883a 	mov	r5,r23
  801934:	1009883a 	mov	r4,r2
  801938:	0801ec40 	call	801ec4 <__addsf3>
  80193c:	d9805b17 	ldw	r6,364(sp)
  801940:	b0800015 	stw	r2,0(r22)
  801944:	8c7fff04 	addi	r17,r17,-4
  801948:	8c000115 	stw	r16,4(r17)
  80194c:	b5bfff04 	addi	r22,r22,-4
  801950:	802f883a 	mov	r23,r16
  801954:	347fed1e 	bne	r6,r17,80190c <__alt_data_end+0xff80190c>
  801958:	00800044 	movi	r2,1
  80195c:	1480830e 	bge	r2,r18,801b6c <__kernel_rem_pio2f+0xac8>
  801960:	d9805117 	ldw	r6,324(sp)
  801964:	31a1883a 	add	r16,r6,r6
  801968:	dc05883a 	add	r2,sp,r16
  80196c:	04100034 	movhi	r16,16384
  801970:	843fffc4 	addi	r16,r16,-1
  801974:	9421883a 	add	r16,r18,r16
  801978:	8421883a 	add	r16,r16,r16
  80197c:	8421883a 	add	r16,r16,r16
  801980:	84400104 	addi	r17,r16,4
  801984:	15801417 	ldw	r22,80(r2)
  801988:	ac63883a 	add	r17,r21,r17
  80198c:	ac21883a 	add	r16,r21,r16
  801990:	8825883a 	mov	r18,r17
  801994:	85c00017 	ldw	r23,0(r16)
  801998:	b009883a 	mov	r4,r22
  80199c:	843fff04 	addi	r16,r16,-4
  8019a0:	b80b883a 	mov	r5,r23
  8019a4:	0801ec40 	call	801ec4 <__addsf3>
  8019a8:	100b883a 	mov	r5,r2
  8019ac:	b809883a 	mov	r4,r23
  8019b0:	1027883a 	mov	r19,r2
  8019b4:	0802d300 	call	802d30 <__subsf3>
  8019b8:	b00b883a 	mov	r5,r22
  8019bc:	1009883a 	mov	r4,r2
  8019c0:	0801ec40 	call	801ec4 <__addsf3>
  8019c4:	90800015 	stw	r2,0(r18)
  8019c8:	84c00115 	stw	r19,4(r16)
  8019cc:	94bfff04 	addi	r18,r18,-4
  8019d0:	982d883a 	mov	r22,r19
  8019d4:	ac3fef1e 	bne	r21,r16,801994 <__alt_data_end+0xff801994>
  8019d8:	dc001504 	addi	r16,sp,84
  8019dc:	0005883a 	mov	r2,zero
  8019e0:	89400017 	ldw	r5,0(r17)
  8019e4:	1009883a 	mov	r4,r2
  8019e8:	8c7fff04 	addi	r17,r17,-4
  8019ec:	0801ec40 	call	801ec4 <__addsf3>
  8019f0:	847ffb1e 	bne	r16,r17,8019e0 <__alt_data_end+0xff8019e0>
  8019f4:	a0005f26 	beq	r20,zero,801b74 <__kernel_rem_pio2f+0xad0>
  8019f8:	d8c01517 	ldw	r3,84(sp)
  8019fc:	d9001417 	ldw	r4,80(sp)
  801a00:	d9805417 	ldw	r6,336(sp)
  801a04:	10a0003c 	xorhi	r2,r2,32768
  801a08:	2120003c 	xorhi	r4,r4,32768
  801a0c:	18e0003c 	xorhi	r3,r3,32768
  801a10:	31000015 	stw	r4,0(r6)
  801a14:	30c00115 	stw	r3,4(r6)
  801a18:	30800215 	stw	r2,8(r6)
  801a1c:	003f7606 	br	8017f8 <__alt_data_end+0xff8017f8>
  801a20:	d8c05417 	ldw	r3,336(sp)
  801a24:	100b883a 	mov	r5,r2
  801a28:	18800015 	stw	r2,0(r3)
  801a2c:	0802d300 	call	802d30 <__subsf3>
  801a30:	1009883a 	mov	r4,r2
  801a34:	04bf9616 	blt	zero,r18,801890 <__alt_data_end+0xff801890>
  801a38:	da005417 	ldw	r8,336(sp)
  801a3c:	40800115 	stw	r2,4(r8)
  801a40:	003f6d06 	br	8017f8 <__alt_data_end+0xff8017f8>
  801a44:	d8c05217 	ldw	r3,328(sp)
  801a48:	4009883a 	mov	r4,r8
  801a4c:	dcc05315 	stw	r19,332(sp)
  801a50:	00cbc83a 	sub	r5,zero,r3
  801a54:	dd805717 	ldw	r22,348(sp)
  801a58:	0410e034 	movhi	r16,17280
  801a5c:	0801d680 	call	801d68 <scalbnf>
  801a60:	800b883a 	mov	r5,r16
  801a64:	1009883a 	mov	r4,r2
  801a68:	1025883a 	mov	r18,r2
  801a6c:	08028440 	call	802844 <__gesf2>
  801a70:	10003116 	blt	r2,zero,801b38 <__kernel_rem_pio2f+0xa94>
  801a74:	014ee034 	movhi	r5,15232
  801a78:	9009883a 	mov	r4,r18
  801a7c:	08029000 	call	802900 <__mulsf3>
  801a80:	1009883a 	mov	r4,r2
  801a84:	08032140 	call	803214 <__fixsfsi>
  801a88:	1009883a 	mov	r4,r2
  801a8c:	08032840 	call	803284 <__floatsisf>
  801a90:	800b883a 	mov	r5,r16
  801a94:	1009883a 	mov	r4,r2
  801a98:	102f883a 	mov	r23,r2
  801a9c:	08029000 	call	802900 <__mulsf3>
  801aa0:	100b883a 	mov	r5,r2
  801aa4:	9009883a 	mov	r4,r18
  801aa8:	0802d300 	call	802d30 <__subsf3>
  801aac:	1009883a 	mov	r4,r2
  801ab0:	ad6b883a 	add	r21,r21,r21
  801ab4:	08032140 	call	803214 <__fixsfsi>
  801ab8:	dd6b883a 	add	r21,sp,r21
  801abc:	8c800044 	addi	r18,r17,1
  801ac0:	ad403c04 	addi	r21,r21,240
  801ac4:	9487883a 	add	r3,r18,r18
  801ac8:	18c7883a 	add	r3,r3,r3
  801acc:	b809883a 	mov	r4,r23
  801ad0:	a8800015 	stw	r2,0(r21)
  801ad4:	d8e1883a 	add	r16,sp,r3
  801ad8:	08032140 	call	803214 <__fixsfsi>
  801adc:	d9805217 	ldw	r6,328(sp)
  801ae0:	84003c04 	addi	r16,r16,240
  801ae4:	80800015 	stw	r2,0(r16)
  801ae8:	31800204 	addi	r6,r6,8
  801aec:	d9805215 	stw	r6,328(sp)
  801af0:	003ef206 	br	8016bc <__alt_data_end+0xff8016bc>
  801af4:	0025883a 	mov	r18,zero
  801af8:	003e4206 	br	801404 <__alt_data_end+0xff801404>
  801afc:	05000044 	movi	r20,1
  801b00:	003e7006 	br	8014c4 <__alt_data_end+0xff8014c4>
  801b04:	480b883a 	mov	r5,r9
  801b08:	010fe034 	movhi	r4,16256
  801b0c:	0802d300 	call	802d30 <__subsf3>
  801b10:	1011883a 	mov	r8,r2
  801b14:	05000084 	movi	r20,2
  801b18:	003e4a06 	br	801444 <__alt_data_end+0xff801444>
  801b1c:	da006717 	ldw	r8,412(sp)
  801b20:	00800084 	movi	r2,2
  801b24:	12000e16 	blt	r2,r8,801b60 <__kernel_rem_pio2f+0xabc>
  801b28:	02000b16 	blt	zero,r8,801b58 <__kernel_rem_pio2f+0xab4>
  801b2c:	403f321e 	bne	r8,zero,8017f8 <__alt_data_end+0xff8017f8>
  801b30:	0005883a 	mov	r2,zero
  801b34:	003f2c06 	br	8017e8 <__alt_data_end+0xff8017e8>
  801b38:	ad61883a 	add	r16,r21,r21
  801b3c:	dc21883a 	add	r16,sp,r16
  801b40:	9009883a 	mov	r4,r18
  801b44:	84003c04 	addi	r16,r16,240
  801b48:	08032140 	call	803214 <__fixsfsi>
  801b4c:	80800015 	stw	r2,0(r16)
  801b50:	8825883a 	mov	r18,r17
  801b54:	003ed906 	br	8016bc <__alt_data_end+0xff8016bc>
  801b58:	0005883a 	mov	r2,zero
  801b5c:	003f4306 	br	80186c <__alt_data_end+0xff80186c>
  801b60:	d8c06717 	ldw	r3,412(sp)
  801b64:	008000c4 	movi	r2,3
  801b68:	18bf231e 	bne	r3,r2,8017f8 <__alt_data_end+0xff8017f8>
  801b6c:	0005883a 	mov	r2,zero
  801b70:	a03fa11e 	bne	r20,zero,8019f8 <__alt_data_end+0xff8019f8>
  801b74:	da005417 	ldw	r8,336(sp)
  801b78:	d8c01517 	ldw	r3,84(sp)
  801b7c:	40800215 	stw	r2,8(r8)
  801b80:	d8801417 	ldw	r2,80(sp)
  801b84:	40c00115 	stw	r3,4(r8)
  801b88:	40800015 	stw	r2,0(r8)
  801b8c:	003f1a06 	br	8017f8 <__alt_data_end+0xff8017f8>
  801b90:	d8005315 	stw	zero,332(sp)
  801b94:	003d5e06 	br	801110 <__alt_data_end+0xff801110>
  801b98:	30c00104 	addi	r3,r6,4
  801b9c:	003d5906 	br	801104 <__alt_data_end+0xff801104>

00801ba0 <__kernel_sinf>:
  801ba0:	00a00034 	movhi	r2,32768
  801ba4:	defff904 	addi	sp,sp,-28
  801ba8:	10bfffc4 	addi	r2,r2,-1
  801bac:	00cc8034 	movhi	r3,12800
  801bb0:	dd000415 	stw	r20,16(sp)
  801bb4:	dcc00315 	stw	r19,12(sp)
  801bb8:	dc000015 	stw	r16,0(sp)
  801bbc:	dfc00615 	stw	ra,24(sp)
  801bc0:	dd400515 	stw	r21,20(sp)
  801bc4:	dc800215 	stw	r18,8(sp)
  801bc8:	dc400115 	stw	r17,4(sp)
  801bcc:	1104703a 	and	r2,r2,r4
  801bd0:	18ffffc4 	addi	r3,r3,-1
  801bd4:	2021883a 	mov	r16,r4
  801bd8:	2827883a 	mov	r19,r5
  801bdc:	3029883a 	mov	r20,r6
  801be0:	18800216 	blt	r3,r2,801bec <__kernel_sinf+0x4c>
  801be4:	08032140 	call	803214 <__fixsfsi>
  801be8:	10005926 	beq	r2,zero,801d50 <__kernel_sinf+0x1b0>
  801bec:	800b883a 	mov	r5,r16
  801bf0:	8009883a 	mov	r4,r16
  801bf4:	08029000 	call	802900 <__mulsf3>
  801bf8:	100b883a 	mov	r5,r2
  801bfc:	8009883a 	mov	r4,r16
  801c00:	1023883a 	mov	r17,r2
  801c04:	08029000 	call	802900 <__mulsf3>
  801c08:	014bcbf4 	movhi	r5,12079
  801c0c:	297274c4 	addi	r5,r5,-13869
  801c10:	8809883a 	mov	r4,r17
  801c14:	1025883a 	mov	r18,r2
  801c18:	08029000 	call	802900 <__mulsf3>
  801c1c:	014cb5f4 	movhi	r5,13015
  801c20:	294bcd04 	addi	r5,r5,12084
  801c24:	1009883a 	mov	r4,r2
  801c28:	0802d300 	call	802d30 <__subsf3>
  801c2c:	880b883a 	mov	r5,r17
  801c30:	1009883a 	mov	r4,r2
  801c34:	08029000 	call	802900 <__mulsf3>
  801c38:	014d8e74 	movhi	r5,13881
  801c3c:	297bc6c4 	addi	r5,r5,-4325
  801c40:	1009883a 	mov	r4,r2
  801c44:	0801ec40 	call	801ec4 <__addsf3>
  801c48:	880b883a 	mov	r5,r17
  801c4c:	1009883a 	mov	r4,r2
  801c50:	08029000 	call	802900 <__mulsf3>
  801c54:	014e5434 	movhi	r5,14672
  801c58:	29434044 	addi	r5,r5,3329
  801c5c:	1009883a 	mov	r4,r2
  801c60:	0802d300 	call	802d30 <__subsf3>
  801c64:	880b883a 	mov	r5,r17
  801c68:	1009883a 	mov	r4,r2
  801c6c:	08029000 	call	802900 <__mulsf3>
  801c70:	014f0274 	movhi	r5,15369
  801c74:	29622244 	addi	r5,r5,-30583
  801c78:	1009883a 	mov	r4,r2
  801c7c:	0801ec40 	call	801ec4 <__addsf3>
  801c80:	102b883a 	mov	r21,r2
  801c84:	a0002426 	beq	r20,zero,801d18 <__kernel_sinf+0x178>
  801c88:	014fc034 	movhi	r5,16128
  801c8c:	9809883a 	mov	r4,r19
  801c90:	08029000 	call	802900 <__mulsf3>
  801c94:	a80b883a 	mov	r5,r21
  801c98:	9009883a 	mov	r4,r18
  801c9c:	1029883a 	mov	r20,r2
  801ca0:	08029000 	call	802900 <__mulsf3>
  801ca4:	100b883a 	mov	r5,r2
  801ca8:	a009883a 	mov	r4,r20
  801cac:	0802d300 	call	802d30 <__subsf3>
  801cb0:	880b883a 	mov	r5,r17
  801cb4:	1009883a 	mov	r4,r2
  801cb8:	08029000 	call	802900 <__mulsf3>
  801cbc:	980b883a 	mov	r5,r19
  801cc0:	1009883a 	mov	r4,r2
  801cc4:	0802d300 	call	802d30 <__subsf3>
  801cc8:	014f8af4 	movhi	r5,15915
  801ccc:	296aaac4 	addi	r5,r5,-21845
  801cd0:	9009883a 	mov	r4,r18
  801cd4:	1023883a 	mov	r17,r2
  801cd8:	08029000 	call	802900 <__mulsf3>
  801cdc:	100b883a 	mov	r5,r2
  801ce0:	8809883a 	mov	r4,r17
  801ce4:	0801ec40 	call	801ec4 <__addsf3>
  801ce8:	100b883a 	mov	r5,r2
  801cec:	8009883a 	mov	r4,r16
  801cf0:	0802d300 	call	802d30 <__subsf3>
  801cf4:	dfc00617 	ldw	ra,24(sp)
  801cf8:	dd400517 	ldw	r21,20(sp)
  801cfc:	dd000417 	ldw	r20,16(sp)
  801d00:	dcc00317 	ldw	r19,12(sp)
  801d04:	dc800217 	ldw	r18,8(sp)
  801d08:	dc400117 	ldw	r17,4(sp)
  801d0c:	dc000017 	ldw	r16,0(sp)
  801d10:	dec00704 	addi	sp,sp,28
  801d14:	f800283a 	ret
  801d18:	8809883a 	mov	r4,r17
  801d1c:	100b883a 	mov	r5,r2
  801d20:	08029000 	call	802900 <__mulsf3>
  801d24:	014f8af4 	movhi	r5,15915
  801d28:	296aaac4 	addi	r5,r5,-21845
  801d2c:	1009883a 	mov	r4,r2
  801d30:	0802d300 	call	802d30 <__subsf3>
  801d34:	900b883a 	mov	r5,r18
  801d38:	1009883a 	mov	r4,r2
  801d3c:	08029000 	call	802900 <__mulsf3>
  801d40:	800b883a 	mov	r5,r16
  801d44:	1009883a 	mov	r4,r2
  801d48:	0801ec40 	call	801ec4 <__addsf3>
  801d4c:	003fe906 	br	801cf4 <__alt_data_end+0xff801cf4>
  801d50:	8005883a 	mov	r2,r16
  801d54:	003fe706 	br	801cf4 <__alt_data_end+0xff801cf4>

00801d58 <fabsf>:
  801d58:	00a00034 	movhi	r2,32768
  801d5c:	10bfffc4 	addi	r2,r2,-1
  801d60:	2084703a 	and	r2,r4,r2
  801d64:	f800283a 	ret

00801d68 <scalbnf>:
  801d68:	00e00034 	movhi	r3,32768
  801d6c:	18ffffc4 	addi	r3,r3,-1
  801d70:	1906703a 	and	r3,r3,r4
  801d74:	200f883a 	mov	r7,r4
  801d78:	18001f26 	beq	r3,zero,801df8 <scalbnf+0x90>
  801d7c:	defffe04 	addi	sp,sp,-8
  801d80:	009fe034 	movhi	r2,32640
  801d84:	dc000015 	stw	r16,0(sp)
  801d88:	dfc00115 	stw	ra,4(sp)
  801d8c:	10bfffc4 	addi	r2,r2,-1
  801d90:	2821883a 	mov	r16,r5
  801d94:	10c01236 	bltu	r2,r3,801de0 <scalbnf+0x78>
  801d98:	00802034 	movhi	r2,128
  801d9c:	10bfffc4 	addi	r2,r2,-1
  801da0:	10c0172e 	bgeu	r2,r3,801e00 <scalbnf+0x98>
  801da4:	1806d5fa 	srli	r3,r3,23
  801da8:	2005883a 	mov	r2,r4
  801dac:	1c07883a 	add	r3,r3,r16
  801db0:	01003f84 	movi	r4,254
  801db4:	20c02316 	blt	r4,r3,801e44 <scalbnf+0xdc>
  801db8:	00c01b0e 	bge	zero,r3,801e28 <scalbnf+0xc0>
  801dbc:	180695fa 	slli	r3,r3,23
  801dc0:	01602034 	movhi	r5,32896
  801dc4:	297fffc4 	addi	r5,r5,-1
  801dc8:	1144703a 	and	r2,r2,r5
  801dcc:	10c4b03a 	or	r2,r2,r3
  801dd0:	dfc00117 	ldw	ra,4(sp)
  801dd4:	dc000017 	ldw	r16,0(sp)
  801dd8:	dec00204 	addi	sp,sp,8
  801ddc:	f800283a 	ret
  801de0:	200b883a 	mov	r5,r4
  801de4:	0801ec40 	call	801ec4 <__addsf3>
  801de8:	dfc00117 	ldw	ra,4(sp)
  801dec:	dc000017 	ldw	r16,0(sp)
  801df0:	dec00204 	addi	sp,sp,8
  801df4:	f800283a 	ret
  801df8:	2005883a 	mov	r2,r4
  801dfc:	f800283a 	ret
  801e00:	01530034 	movhi	r5,19456
  801e04:	08029000 	call	802900 <__mulsf3>
  801e08:	00fffff4 	movhi	r3,65535
  801e0c:	18cf2c04 	addi	r3,r3,15536
  801e10:	100f883a 	mov	r7,r2
  801e14:	80c01716 	blt	r16,r3,801e74 <scalbnf+0x10c>
  801e18:	119fe02c 	andhi	r6,r2,32640
  801e1c:	300dd5fa 	srai	r6,r6,23
  801e20:	30fff9c4 	addi	r3,r6,-25
  801e24:	003fe106 	br	801dac <__alt_data_end+0xff801dac>
  801e28:	013ffa84 	movi	r4,-22
  801e2c:	1900160e 	bge	r3,r4,801e88 <scalbnf+0x120>
  801e30:	00b0d414 	movui	r2,50000
  801e34:	14000316 	blt	r2,r16,801e44 <scalbnf+0xdc>
  801e38:	040368b4 	movhi	r16,3490
  801e3c:	84109804 	addi	r16,r16,16992
  801e40:	00000206 	br	801e4c <scalbnf+0xe4>
  801e44:	041c52b4 	movhi	r16,29002
  801e48:	843cb284 	addi	r16,r16,-3382
  801e4c:	380b883a 	mov	r5,r7
  801e50:	8009883a 	mov	r4,r16
  801e54:	0801eac0 	call	801eac <copysignf>
  801e58:	800b883a 	mov	r5,r16
  801e5c:	1009883a 	mov	r4,r2
  801e60:	08029000 	call	802900 <__mulsf3>
  801e64:	dfc00117 	ldw	ra,4(sp)
  801e68:	dc000017 	ldw	r16,0(sp)
  801e6c:	dec00204 	addi	sp,sp,8
  801e70:	f800283a 	ret
  801e74:	014368b4 	movhi	r5,3490
  801e78:	29509804 	addi	r5,r5,16992
  801e7c:	1009883a 	mov	r4,r2
  801e80:	08029000 	call	802900 <__mulsf3>
  801e84:	003fd806 	br	801de8 <__alt_data_end+0xff801de8>
  801e88:	18c00644 	addi	r3,r3,25
  801e8c:	180c95fa 	slli	r6,r3,23
  801e90:	01202034 	movhi	r4,32896
  801e94:	213fffc4 	addi	r4,r4,-1
  801e98:	1108703a 	and	r4,r2,r4
  801e9c:	014cc034 	movhi	r5,13056
  801ea0:	3108b03a 	or	r4,r6,r4
  801ea4:	08029000 	call	802900 <__mulsf3>
  801ea8:	003fcf06 	br	801de8 <__alt_data_end+0xff801de8>

00801eac <copysignf>:
  801eac:	00e00034 	movhi	r3,32768
  801eb0:	18ffffc4 	addi	r3,r3,-1
  801eb4:	28a0002c 	andhi	r2,r5,32768
  801eb8:	20c8703a 	and	r4,r4,r3
  801ebc:	2084b03a 	or	r2,r4,r2
  801ec0:	f800283a 	ret

00801ec4 <__addsf3>:
  801ec4:	defffc04 	addi	sp,sp,-16
  801ec8:	2004d7fa 	srli	r2,r4,31
  801ecc:	280cd5fa 	srli	r6,r5,23
  801ed0:	dc000015 	stw	r16,0(sp)
  801ed4:	00c02034 	movhi	r3,128
  801ed8:	2020d5fa 	srli	r16,r4,23
  801edc:	280ed7fa 	srli	r7,r5,31
  801ee0:	18ffffc4 	addi	r3,r3,-1
  801ee4:	dc400115 	stw	r17,4(sp)
  801ee8:	1908703a 	and	r4,r3,r4
  801eec:	194a703a 	and	r5,r3,r5
  801ef0:	dfc00315 	stw	ra,12(sp)
  801ef4:	dc800215 	stw	r18,8(sp)
  801ef8:	14403fcc 	andi	r17,r2,255
  801efc:	84003fcc 	andi	r16,r16,255
  801f00:	200890fa 	slli	r4,r4,3
  801f04:	31803fcc 	andi	r6,r6,255
  801f08:	280a90fa 	slli	r5,r5,3
  801f0c:	89c05026 	beq	r17,r7,802050 <__addsf3+0x18c>
  801f10:	8185c83a 	sub	r2,r16,r6
  801f14:	00807a0e 	bge	zero,r2,802100 <__addsf3+0x23c>
  801f18:	30001e1e 	bne	r6,zero,801f94 <__addsf3+0xd0>
  801f1c:	28006d1e 	bne	r5,zero,8020d4 <__addsf3+0x210>
  801f20:	208001cc 	andi	r2,r4,7
  801f24:	10000426 	beq	r2,zero,801f38 <__addsf3+0x74>
  801f28:	208003cc 	andi	r2,r4,15
  801f2c:	00c00104 	movi	r3,4
  801f30:	10c00126 	beq	r2,r3,801f38 <__addsf3+0x74>
  801f34:	20c9883a 	add	r4,r4,r3
  801f38:	2081002c 	andhi	r2,r4,1024
  801f3c:	10003926 	beq	r2,zero,802024 <__addsf3+0x160>
  801f40:	84000044 	addi	r16,r16,1
  801f44:	00803fc4 	movi	r2,255
  801f48:	80807826 	beq	r16,r2,80212c <__addsf3+0x268>
  801f4c:	200891ba 	slli	r4,r4,6
  801f50:	8805883a 	mov	r2,r17
  801f54:	2008d27a 	srli	r4,r4,9
  801f58:	84003fcc 	andi	r16,r16,255
  801f5c:	800695fa 	slli	r3,r16,23
  801f60:	10803fcc 	andi	r2,r2,255
  801f64:	04002034 	movhi	r16,128
  801f68:	843fffc4 	addi	r16,r16,-1
  801f6c:	100497fa 	slli	r2,r2,31
  801f70:	2408703a 	and	r4,r4,r16
  801f74:	20e0b03a 	or	r16,r4,r3
  801f78:	8084b03a 	or	r2,r16,r2
  801f7c:	dfc00317 	ldw	ra,12(sp)
  801f80:	dc800217 	ldw	r18,8(sp)
  801f84:	dc400117 	ldw	r17,4(sp)
  801f88:	dc000017 	ldw	r16,0(sp)
  801f8c:	dec00404 	addi	sp,sp,16
  801f90:	f800283a 	ret
  801f94:	00c03fc4 	movi	r3,255
  801f98:	80ffe126 	beq	r16,r3,801f20 <__alt_data_end+0xff801f20>
  801f9c:	29410034 	orhi	r5,r5,1024
  801fa0:	00c006c4 	movi	r3,27
  801fa4:	18807516 	blt	r3,r2,80217c <__addsf3+0x2b8>
  801fa8:	00c00804 	movi	r3,32
  801fac:	1887c83a 	sub	r3,r3,r2
  801fb0:	28c6983a 	sll	r3,r5,r3
  801fb4:	288ad83a 	srl	r5,r5,r2
  801fb8:	1804c03a 	cmpne	r2,r3,zero
  801fbc:	288ab03a 	or	r5,r5,r2
  801fc0:	2149c83a 	sub	r4,r4,r5
  801fc4:	2081002c 	andhi	r2,r4,1024
  801fc8:	10001426 	beq	r2,zero,80201c <__addsf3+0x158>
  801fcc:	04810034 	movhi	r18,1024
  801fd0:	94bfffc4 	addi	r18,r18,-1
  801fd4:	24a4703a 	and	r18,r4,r18
  801fd8:	9009883a 	mov	r4,r18
  801fdc:	08047740 	call	804774 <__clzsi2>
  801fe0:	10bffec4 	addi	r2,r2,-5
  801fe4:	90a4983a 	sll	r18,r18,r2
  801fe8:	14005416 	blt	r2,r16,80213c <__addsf3+0x278>
  801fec:	1405c83a 	sub	r2,r2,r16
  801ff0:	11000044 	addi	r4,r2,1
  801ff4:	00800804 	movi	r2,32
  801ff8:	1105c83a 	sub	r2,r2,r4
  801ffc:	9084983a 	sll	r2,r18,r2
  802000:	9124d83a 	srl	r18,r18,r4
  802004:	0021883a 	mov	r16,zero
  802008:	1008c03a 	cmpne	r4,r2,zero
  80200c:	9108b03a 	or	r4,r18,r4
  802010:	003fc306 	br	801f20 <__alt_data_end+0xff801f20>
  802014:	1000db26 	beq	r2,zero,802384 <__addsf3+0x4c0>
  802018:	1009883a 	mov	r4,r2
  80201c:	208001cc 	andi	r2,r4,7
  802020:	103fc11e 	bne	r2,zero,801f28 <__alt_data_end+0xff801f28>
  802024:	2006d0fa 	srli	r3,r4,3
  802028:	01003fc4 	movi	r4,255
  80202c:	8805883a 	mov	r2,r17
  802030:	8100241e 	bne	r16,r4,8020c4 <__addsf3+0x200>
  802034:	18006e26 	beq	r3,zero,8021f0 <__addsf3+0x32c>
  802038:	19001034 	orhi	r4,r3,64
  80203c:	00c02034 	movhi	r3,128
  802040:	18ffffc4 	addi	r3,r3,-1
  802044:	043fffc4 	movi	r16,-1
  802048:	20c8703a 	and	r4,r4,r3
  80204c:	003fc206 	br	801f58 <__alt_data_end+0xff801f58>
  802050:	8187c83a 	sub	r3,r16,r6
  802054:	00c03e0e 	bge	zero,r3,802150 <__addsf3+0x28c>
  802058:	30002326 	beq	r6,zero,8020e8 <__addsf3+0x224>
  80205c:	01803fc4 	movi	r6,255
  802060:	81bfaf26 	beq	r16,r6,801f20 <__alt_data_end+0xff801f20>
  802064:	29410034 	orhi	r5,r5,1024
  802068:	018006c4 	movi	r6,27
  80206c:	30c07416 	blt	r6,r3,802240 <__addsf3+0x37c>
  802070:	01800804 	movi	r6,32
  802074:	30cdc83a 	sub	r6,r6,r3
  802078:	298c983a 	sll	r6,r5,r6
  80207c:	28cad83a 	srl	r5,r5,r3
  802080:	3006c03a 	cmpne	r3,r6,zero
  802084:	28cab03a 	or	r5,r5,r3
  802088:	2149883a 	add	r4,r4,r5
  80208c:	20c1002c 	andhi	r3,r4,1024
  802090:	183fe226 	beq	r3,zero,80201c <__alt_data_end+0xff80201c>
  802094:	84000044 	addi	r16,r16,1
  802098:	00c03fc4 	movi	r3,255
  80209c:	80c05426 	beq	r16,r3,8021f0 <__addsf3+0x32c>
  8020a0:	00bf0034 	movhi	r2,64512
  8020a4:	10bfffc4 	addi	r2,r2,-1
  8020a8:	20c0004c 	andi	r3,r4,1
  8020ac:	2088703a 	and	r4,r4,r2
  8020b0:	2008d07a 	srli	r4,r4,1
  8020b4:	20c8b03a 	or	r4,r4,r3
  8020b8:	003f9906 	br	801f20 <__alt_data_end+0xff801f20>
  8020bc:	0007883a 	mov	r3,zero
  8020c0:	0005883a 	mov	r2,zero
  8020c4:	01002034 	movhi	r4,128
  8020c8:	213fffc4 	addi	r4,r4,-1
  8020cc:	1908703a 	and	r4,r3,r4
  8020d0:	003fa106 	br	801f58 <__alt_data_end+0xff801f58>
  8020d4:	10bfffc4 	addi	r2,r2,-1
  8020d8:	103fb926 	beq	r2,zero,801fc0 <__alt_data_end+0xff801fc0>
  8020dc:	00c03fc4 	movi	r3,255
  8020e0:	80ffaf1e 	bne	r16,r3,801fa0 <__alt_data_end+0xff801fa0>
  8020e4:	003f8e06 	br	801f20 <__alt_data_end+0xff801f20>
  8020e8:	283f8d26 	beq	r5,zero,801f20 <__alt_data_end+0xff801f20>
  8020ec:	18ffffc4 	addi	r3,r3,-1
  8020f0:	183fe526 	beq	r3,zero,802088 <__alt_data_end+0xff802088>
  8020f4:	01803fc4 	movi	r6,255
  8020f8:	81bfdb1e 	bne	r16,r6,802068 <__alt_data_end+0xff802068>
  8020fc:	003f8806 	br	801f20 <__alt_data_end+0xff801f20>
  802100:	1000201e 	bne	r2,zero,802184 <__addsf3+0x2c0>
  802104:	80800044 	addi	r2,r16,1
  802108:	10803fcc 	andi	r2,r2,255
  80210c:	01800044 	movi	r6,1
  802110:	3080450e 	bge	r6,r2,802228 <__addsf3+0x364>
  802114:	2165c83a 	sub	r18,r4,r5
  802118:	90c1002c 	andhi	r3,r18,1024
  80211c:	18002b26 	beq	r3,zero,8021cc <__addsf3+0x308>
  802120:	2925c83a 	sub	r18,r5,r4
  802124:	3823883a 	mov	r17,r7
  802128:	003fab06 	br	801fd8 <__alt_data_end+0xff801fd8>
  80212c:	8805883a 	mov	r2,r17
  802130:	043fffc4 	movi	r16,-1
  802134:	0009883a 	mov	r4,zero
  802138:	003f8706 	br	801f58 <__alt_data_end+0xff801f58>
  80213c:	013f0034 	movhi	r4,64512
  802140:	213fffc4 	addi	r4,r4,-1
  802144:	80a1c83a 	sub	r16,r16,r2
  802148:	9108703a 	and	r4,r18,r4
  80214c:	003f7406 	br	801f20 <__alt_data_end+0xff801f20>
  802150:	1800411e 	bne	r3,zero,802258 <__addsf3+0x394>
  802154:	80c00044 	addi	r3,r16,1
  802158:	19c03fcc 	andi	r7,r3,255
  80215c:	01800044 	movi	r6,1
  802160:	31c0260e 	bge	r6,r7,8021fc <__addsf3+0x338>
  802164:	01803fc4 	movi	r6,255
  802168:	19802126 	beq	r3,r6,8021f0 <__addsf3+0x32c>
  80216c:	2149883a 	add	r4,r4,r5
  802170:	2008d07a 	srli	r4,r4,1
  802174:	1821883a 	mov	r16,r3
  802178:	003f6906 	br	801f20 <__alt_data_end+0xff801f20>
  80217c:	01400044 	movi	r5,1
  802180:	003f8f06 	br	801fc0 <__alt_data_end+0xff801fc0>
  802184:	8000151e 	bne	r16,zero,8021dc <__addsf3+0x318>
  802188:	20002f26 	beq	r4,zero,802248 <__addsf3+0x384>
  80218c:	0084303a 	nor	r2,zero,r2
  802190:	10000a26 	beq	r2,zero,8021bc <__addsf3+0x2f8>
  802194:	00c03fc4 	movi	r3,255
  802198:	30c02b26 	beq	r6,r3,802248 <__addsf3+0x384>
  80219c:	00c006c4 	movi	r3,27
  8021a0:	18806d16 	blt	r3,r2,802358 <__addsf3+0x494>
  8021a4:	00c00804 	movi	r3,32
  8021a8:	1887c83a 	sub	r3,r3,r2
  8021ac:	20c6983a 	sll	r3,r4,r3
  8021b0:	2084d83a 	srl	r2,r4,r2
  8021b4:	1808c03a 	cmpne	r4,r3,zero
  8021b8:	1108b03a 	or	r4,r2,r4
  8021bc:	2909c83a 	sub	r4,r5,r4
  8021c0:	3021883a 	mov	r16,r6
  8021c4:	3823883a 	mov	r17,r7
  8021c8:	003f7e06 	br	801fc4 <__alt_data_end+0xff801fc4>
  8021cc:	903f821e 	bne	r18,zero,801fd8 <__alt_data_end+0xff801fd8>
  8021d0:	0005883a 	mov	r2,zero
  8021d4:	0021883a 	mov	r16,zero
  8021d8:	003fba06 	br	8020c4 <__alt_data_end+0xff8020c4>
  8021dc:	00c03fc4 	movi	r3,255
  8021e0:	30c01926 	beq	r6,r3,802248 <__addsf3+0x384>
  8021e4:	0085c83a 	sub	r2,zero,r2
  8021e8:	21010034 	orhi	r4,r4,1024
  8021ec:	003feb06 	br	80219c <__alt_data_end+0xff80219c>
  8021f0:	043fffc4 	movi	r16,-1
  8021f4:	0009883a 	mov	r4,zero
  8021f8:	003f5706 	br	801f58 <__alt_data_end+0xff801f58>
  8021fc:	80004a1e 	bne	r16,zero,802328 <__addsf3+0x464>
  802200:	20005926 	beq	r4,zero,802368 <__addsf3+0x4a4>
  802204:	283f4626 	beq	r5,zero,801f20 <__alt_data_end+0xff801f20>
  802208:	2149883a 	add	r4,r4,r5
  80220c:	2081002c 	andhi	r2,r4,1024
  802210:	103f8226 	beq	r2,zero,80201c <__alt_data_end+0xff80201c>
  802214:	00bf0034 	movhi	r2,64512
  802218:	10bfffc4 	addi	r2,r2,-1
  80221c:	3021883a 	mov	r16,r6
  802220:	2088703a 	and	r4,r4,r2
  802224:	003f3e06 	br	801f20 <__alt_data_end+0xff801f20>
  802228:	8000121e 	bne	r16,zero,802274 <__addsf3+0x3b0>
  80222c:	2000261e 	bne	r4,zero,8022c8 <__addsf3+0x404>
  802230:	283fa226 	beq	r5,zero,8020bc <__alt_data_end+0xff8020bc>
  802234:	2809883a 	mov	r4,r5
  802238:	3823883a 	mov	r17,r7
  80223c:	003f3806 	br	801f20 <__alt_data_end+0xff801f20>
  802240:	01400044 	movi	r5,1
  802244:	003f9006 	br	802088 <__alt_data_end+0xff802088>
  802248:	2809883a 	mov	r4,r5
  80224c:	3021883a 	mov	r16,r6
  802250:	3823883a 	mov	r17,r7
  802254:	003f3206 	br	801f20 <__alt_data_end+0xff801f20>
  802258:	80000c1e 	bne	r16,zero,80228c <__addsf3+0x3c8>
  80225c:	20002f26 	beq	r4,zero,80231c <__addsf3+0x458>
  802260:	00c6303a 	nor	r3,zero,r3
  802264:	18002b1e 	bne	r3,zero,802314 <__addsf3+0x450>
  802268:	2149883a 	add	r4,r4,r5
  80226c:	3021883a 	mov	r16,r6
  802270:	003f8606 	br	80208c <__alt_data_end+0xff80208c>
  802274:	20001b1e 	bne	r4,zero,8022e4 <__addsf3+0x420>
  802278:	28003926 	beq	r5,zero,802360 <__addsf3+0x49c>
  80227c:	2809883a 	mov	r4,r5
  802280:	3823883a 	mov	r17,r7
  802284:	04003fc4 	movi	r16,255
  802288:	003f2506 	br	801f20 <__alt_data_end+0xff801f20>
  80228c:	01c03fc4 	movi	r7,255
  802290:	31c02226 	beq	r6,r7,80231c <__addsf3+0x458>
  802294:	00c7c83a 	sub	r3,zero,r3
  802298:	21010034 	orhi	r4,r4,1024
  80229c:	01c006c4 	movi	r7,27
  8022a0:	38c03616 	blt	r7,r3,80237c <__addsf3+0x4b8>
  8022a4:	01c00804 	movi	r7,32
  8022a8:	38cfc83a 	sub	r7,r7,r3
  8022ac:	21ce983a 	sll	r7,r4,r7
  8022b0:	20c6d83a 	srl	r3,r4,r3
  8022b4:	3808c03a 	cmpne	r4,r7,zero
  8022b8:	1906b03a 	or	r3,r3,r4
  8022bc:	1949883a 	add	r4,r3,r5
  8022c0:	3021883a 	mov	r16,r6
  8022c4:	003f7106 	br	80208c <__alt_data_end+0xff80208c>
  8022c8:	283f1526 	beq	r5,zero,801f20 <__alt_data_end+0xff801f20>
  8022cc:	2145c83a 	sub	r2,r4,r5
  8022d0:	10c1002c 	andhi	r3,r2,1024
  8022d4:	183f4f26 	beq	r3,zero,802014 <__alt_data_end+0xff802014>
  8022d8:	2909c83a 	sub	r4,r5,r4
  8022dc:	3823883a 	mov	r17,r7
  8022e0:	003f0f06 	br	801f20 <__alt_data_end+0xff801f20>
  8022e4:	28001a26 	beq	r5,zero,802350 <__addsf3+0x48c>
  8022e8:	2008d0fa 	srli	r4,r4,3
  8022ec:	2080102c 	andhi	r2,r4,64
  8022f0:	10000526 	beq	r2,zero,802308 <__addsf3+0x444>
  8022f4:	280ad0fa 	srli	r5,r5,3
  8022f8:	2880102c 	andhi	r2,r5,64
  8022fc:	1000021e 	bne	r2,zero,802308 <__addsf3+0x444>
  802300:	2809883a 	mov	r4,r5
  802304:	3823883a 	mov	r17,r7
  802308:	200890fa 	slli	r4,r4,3
  80230c:	04003fc4 	movi	r16,255
  802310:	003f0306 	br	801f20 <__alt_data_end+0xff801f20>
  802314:	01c03fc4 	movi	r7,255
  802318:	31ffe01e 	bne	r6,r7,80229c <__alt_data_end+0xff80229c>
  80231c:	2809883a 	mov	r4,r5
  802320:	3021883a 	mov	r16,r6
  802324:	003efe06 	br	801f20 <__alt_data_end+0xff801f20>
  802328:	20001126 	beq	r4,zero,802370 <__addsf3+0x4ac>
  80232c:	28000826 	beq	r5,zero,802350 <__addsf3+0x48c>
  802330:	2008d0fa 	srli	r4,r4,3
  802334:	2080102c 	andhi	r2,r4,64
  802338:	103ff326 	beq	r2,zero,802308 <__alt_data_end+0xff802308>
  80233c:	280ad0fa 	srli	r5,r5,3
  802340:	2880102c 	andhi	r2,r5,64
  802344:	103ff01e 	bne	r2,zero,802308 <__alt_data_end+0xff802308>
  802348:	2809883a 	mov	r4,r5
  80234c:	003fee06 	br	802308 <__alt_data_end+0xff802308>
  802350:	04003fc4 	movi	r16,255
  802354:	003ef206 	br	801f20 <__alt_data_end+0xff801f20>
  802358:	01000044 	movi	r4,1
  80235c:	003f9706 	br	8021bc <__alt_data_end+0xff8021bc>
  802360:	0005883a 	mov	r2,zero
  802364:	003f3406 	br	802038 <__alt_data_end+0xff802038>
  802368:	2809883a 	mov	r4,r5
  80236c:	003eec06 	br	801f20 <__alt_data_end+0xff801f20>
  802370:	2809883a 	mov	r4,r5
  802374:	04003fc4 	movi	r16,255
  802378:	003ee906 	br	801f20 <__alt_data_end+0xff801f20>
  80237c:	00c00044 	movi	r3,1
  802380:	003fce06 	br	8022bc <__alt_data_end+0xff8022bc>
  802384:	0005883a 	mov	r2,zero
  802388:	003f4e06 	br	8020c4 <__alt_data_end+0xff8020c4>

0080238c <__divsf3>:
  80238c:	defff504 	addi	sp,sp,-44
  802390:	2004d5fa 	srli	r2,r4,23
  802394:	dcc00415 	stw	r19,16(sp)
  802398:	2026d7fa 	srli	r19,r4,31
  80239c:	01c02034 	movhi	r7,128
  8023a0:	dd800715 	stw	r22,28(sp)
  8023a4:	dd000515 	stw	r20,20(sp)
  8023a8:	dc800315 	stw	r18,12(sp)
  8023ac:	39ffffc4 	addi	r7,r7,-1
  8023b0:	dfc00a15 	stw	ra,40(sp)
  8023b4:	df000915 	stw	fp,36(sp)
  8023b8:	ddc00815 	stw	r23,32(sp)
  8023bc:	dd400615 	stw	r21,24(sp)
  8023c0:	dc400215 	stw	r17,8(sp)
  8023c4:	dc000115 	stw	r16,4(sp)
  8023c8:	15003fcc 	andi	r20,r2,255
  8023cc:	3924703a 	and	r18,r7,r4
  8023d0:	9d803fcc 	andi	r22,r19,255
  8023d4:	a0005226 	beq	r20,zero,802520 <__divsf3+0x194>
  8023d8:	00803fc4 	movi	r2,255
  8023dc:	a0802e26 	beq	r20,r2,802498 <__divsf3+0x10c>
  8023e0:	91002034 	orhi	r4,r18,128
  8023e4:	202490fa 	slli	r18,r4,3
  8023e8:	a53fe044 	addi	r20,r20,-127
  8023ec:	0021883a 	mov	r16,zero
  8023f0:	002f883a 	mov	r23,zero
  8023f4:	2804d5fa 	srli	r2,r5,23
  8023f8:	282ad7fa 	srli	r21,r5,31
  8023fc:	01c02034 	movhi	r7,128
  802400:	39ffffc4 	addi	r7,r7,-1
  802404:	10803fcc 	andi	r2,r2,255
  802408:	3962703a 	and	r17,r7,r5
  80240c:	af003fcc 	andi	fp,r21,255
  802410:	10004a26 	beq	r2,zero,80253c <__divsf3+0x1b0>
  802414:	00c03fc4 	movi	r3,255
  802418:	10c04526 	beq	r2,r3,802530 <__divsf3+0x1a4>
  80241c:	89402034 	orhi	r5,r17,128
  802420:	282290fa 	slli	r17,r5,3
  802424:	10bfe044 	addi	r2,r2,-127
  802428:	000b883a 	mov	r5,zero
  80242c:	2c20b03a 	or	r16,r5,r16
  802430:	802090ba 	slli	r16,r16,2
  802434:	00c02034 	movhi	r3,128
  802438:	18c91604 	addi	r3,r3,9304
  80243c:	80e1883a 	add	r16,r16,r3
  802440:	80c00017 	ldw	r3,0(r16)
  802444:	9d48f03a 	xor	r4,r19,r21
  802448:	200d883a 	mov	r6,r4
  80244c:	22003fcc 	andi	r8,r4,255
  802450:	a085c83a 	sub	r2,r20,r2
  802454:	1800683a 	jmp	r3
  802458:	0080263c 	xorhi	r2,zero,152
  80245c:	008024c0 	call	8024c <__alt_mem_sdram-0x77fdb4>
  802460:	00802630 	cmpltui	r2,zero,152
  802464:	008024ac 	andhi	r2,zero,146
  802468:	00802630 	cmpltui	r2,zero,152
  80246c:	00802608 	cmpgei	r2,zero,152
  802470:	00802630 	cmpltui	r2,zero,152
  802474:	008024ac 	andhi	r2,zero,146
  802478:	008024c0 	call	8024c <__alt_mem_sdram-0x77fdb4>
  80247c:	008024c0 	call	8024c <__alt_mem_sdram-0x77fdb4>
  802480:	00802608 	cmpgei	r2,zero,152
  802484:	008024ac 	andhi	r2,zero,146
  802488:	0080271c 	xori	r2,zero,156
  80248c:	0080271c 	xori	r2,zero,156
  802490:	0080271c 	xori	r2,zero,156
  802494:	008026d0 	cmplti	r2,zero,155
  802498:	9000581e 	bne	r18,zero,8025fc <__divsf3+0x270>
  80249c:	04000204 	movi	r16,8
  8024a0:	05c00084 	movi	r23,2
  8024a4:	003fd306 	br	8023f4 <__alt_data_end+0xff8023f4>
  8024a8:	0023883a 	mov	r17,zero
  8024ac:	e02d883a 	mov	r22,fp
  8024b0:	282f883a 	mov	r23,r5
  8024b4:	00c00084 	movi	r3,2
  8024b8:	b8c08f1e 	bne	r23,r3,8026f8 <__divsf3+0x36c>
  8024bc:	b011883a 	mov	r8,r22
  8024c0:	4180004c 	andi	r6,r8,1
  8024c4:	013fffc4 	movi	r4,-1
  8024c8:	000f883a 	mov	r7,zero
  8024cc:	21003fcc 	andi	r4,r4,255
  8024d0:	200895fa 	slli	r4,r4,23
  8024d4:	30803fcc 	andi	r2,r6,255
  8024d8:	00c02034 	movhi	r3,128
  8024dc:	100497fa 	slli	r2,r2,31
  8024e0:	18ffffc4 	addi	r3,r3,-1
  8024e4:	38c6703a 	and	r3,r7,r3
  8024e8:	1906b03a 	or	r3,r3,r4
  8024ec:	1884b03a 	or	r2,r3,r2
  8024f0:	dfc00a17 	ldw	ra,40(sp)
  8024f4:	df000917 	ldw	fp,36(sp)
  8024f8:	ddc00817 	ldw	r23,32(sp)
  8024fc:	dd800717 	ldw	r22,28(sp)
  802500:	dd400617 	ldw	r21,24(sp)
  802504:	dd000517 	ldw	r20,20(sp)
  802508:	dcc00417 	ldw	r19,16(sp)
  80250c:	dc800317 	ldw	r18,12(sp)
  802510:	dc400217 	ldw	r17,8(sp)
  802514:	dc000117 	ldw	r16,4(sp)
  802518:	dec00b04 	addi	sp,sp,44
  80251c:	f800283a 	ret
  802520:	90002b1e 	bne	r18,zero,8025d0 <__divsf3+0x244>
  802524:	04000104 	movi	r16,4
  802528:	05c00044 	movi	r23,1
  80252c:	003fb106 	br	8023f4 <__alt_data_end+0xff8023f4>
  802530:	8800251e 	bne	r17,zero,8025c8 <__divsf3+0x23c>
  802534:	01400084 	movi	r5,2
  802538:	00000206 	br	802544 <__divsf3+0x1b8>
  80253c:	88001a1e 	bne	r17,zero,8025a8 <__divsf3+0x21c>
  802540:	01400044 	movi	r5,1
  802544:	8160b03a 	or	r16,r16,r5
  802548:	802090ba 	slli	r16,r16,2
  80254c:	00c02034 	movhi	r3,128
  802550:	18c95a04 	addi	r3,r3,9576
  802554:	80e1883a 	add	r16,r16,r3
  802558:	80c00017 	ldw	r3,0(r16)
  80255c:	9d50f03a 	xor	r8,r19,r21
  802560:	a085c83a 	sub	r2,r20,r2
  802564:	1800683a 	jmp	r3
  802568:	008024c0 	call	8024c <__alt_mem_sdram-0x77fdb4>
  80256c:	008024c0 	call	8024c <__alt_mem_sdram-0x77fdb4>
  802570:	0080270c 	andi	r2,zero,156
  802574:	008024a8 	cmpgeui	r2,zero,146
  802578:	0080270c 	andi	r2,zero,156
  80257c:	00802608 	cmpgei	r2,zero,152
  802580:	0080270c 	andi	r2,zero,156
  802584:	008024a8 	cmpgeui	r2,zero,146
  802588:	008024c0 	call	8024c <__alt_mem_sdram-0x77fdb4>
  80258c:	008024c0 	call	8024c <__alt_mem_sdram-0x77fdb4>
  802590:	00802608 	cmpgei	r2,zero,152
  802594:	008024a8 	cmpgeui	r2,zero,146
  802598:	0080271c 	xori	r2,zero,156
  80259c:	0080271c 	xori	r2,zero,156
  8025a0:	0080271c 	xori	r2,zero,156
  8025a4:	00802734 	movhi	r2,156
  8025a8:	8809883a 	mov	r4,r17
  8025ac:	08047740 	call	804774 <__clzsi2>
  8025b0:	10fffec4 	addi	r3,r2,-5
  8025b4:	88e2983a 	sll	r17,r17,r3
  8025b8:	00ffe284 	movi	r3,-118
  8025bc:	1885c83a 	sub	r2,r3,r2
  8025c0:	000b883a 	mov	r5,zero
  8025c4:	003f9906 	br	80242c <__alt_data_end+0xff80242c>
  8025c8:	014000c4 	movi	r5,3
  8025cc:	003f9706 	br	80242c <__alt_data_end+0xff80242c>
  8025d0:	9009883a 	mov	r4,r18
  8025d4:	d9400015 	stw	r5,0(sp)
  8025d8:	08047740 	call	804774 <__clzsi2>
  8025dc:	10fffec4 	addi	r3,r2,-5
  8025e0:	053fe284 	movi	r20,-118
  8025e4:	90e4983a 	sll	r18,r18,r3
  8025e8:	a0a9c83a 	sub	r20,r20,r2
  8025ec:	0021883a 	mov	r16,zero
  8025f0:	002f883a 	mov	r23,zero
  8025f4:	d9400017 	ldw	r5,0(sp)
  8025f8:	003f7e06 	br	8023f4 <__alt_data_end+0xff8023f4>
  8025fc:	04000304 	movi	r16,12
  802600:	05c000c4 	movi	r23,3
  802604:	003f7b06 	br	8023f4 <__alt_data_end+0xff8023f4>
  802608:	01c02034 	movhi	r7,128
  80260c:	000d883a 	mov	r6,zero
  802610:	39ffffc4 	addi	r7,r7,-1
  802614:	013fffc4 	movi	r4,-1
  802618:	003fac06 	br	8024cc <__alt_data_end+0xff8024cc>
  80261c:	01400044 	movi	r5,1
  802620:	2909c83a 	sub	r4,r5,r4
  802624:	008006c4 	movi	r2,27
  802628:	11004b0e 	bge	r2,r4,802758 <__divsf3+0x3cc>
  80262c:	414c703a 	and	r6,r8,r5
  802630:	0009883a 	mov	r4,zero
  802634:	000f883a 	mov	r7,zero
  802638:	003fa406 	br	8024cc <__alt_data_end+0xff8024cc>
  80263c:	9006917a 	slli	r3,r18,5
  802640:	880e917a 	slli	r7,r17,5
  802644:	19c0372e 	bgeu	r3,r7,802724 <__divsf3+0x398>
  802648:	10bfffc4 	addi	r2,r2,-1
  80264c:	010006c4 	movi	r4,27
  802650:	000b883a 	mov	r5,zero
  802654:	180d883a 	mov	r6,r3
  802658:	294b883a 	add	r5,r5,r5
  80265c:	18c7883a 	add	r3,r3,r3
  802660:	30000116 	blt	r6,zero,802668 <__divsf3+0x2dc>
  802664:	19c00236 	bltu	r3,r7,802670 <__divsf3+0x2e4>
  802668:	19c7c83a 	sub	r3,r3,r7
  80266c:	29400054 	ori	r5,r5,1
  802670:	213fffc4 	addi	r4,r4,-1
  802674:	203ff71e 	bne	r4,zero,802654 <__alt_data_end+0xff802654>
  802678:	1806c03a 	cmpne	r3,r3,zero
  80267c:	1962b03a 	or	r17,r3,r5
  802680:	11001fc4 	addi	r4,r2,127
  802684:	013fe50e 	bge	zero,r4,80261c <__alt_data_end+0xff80261c>
  802688:	88c001cc 	andi	r3,r17,7
  80268c:	18000426 	beq	r3,zero,8026a0 <__divsf3+0x314>
  802690:	88c003cc 	andi	r3,r17,15
  802694:	01400104 	movi	r5,4
  802698:	19400126 	beq	r3,r5,8026a0 <__divsf3+0x314>
  80269c:	8963883a 	add	r17,r17,r5
  8026a0:	88c2002c 	andhi	r3,r17,2048
  8026a4:	18000426 	beq	r3,zero,8026b8 <__divsf3+0x32c>
  8026a8:	11002004 	addi	r4,r2,128
  8026ac:	00be0034 	movhi	r2,63488
  8026b0:	10bfffc4 	addi	r2,r2,-1
  8026b4:	88a2703a 	and	r17,r17,r2
  8026b8:	00803f84 	movi	r2,254
  8026bc:	113f8016 	blt	r2,r4,8024c0 <__alt_data_end+0xff8024c0>
  8026c0:	880e91ba 	slli	r7,r17,6
  8026c4:	4180004c 	andi	r6,r8,1
  8026c8:	380ed27a 	srli	r7,r7,9
  8026cc:	003f7f06 	br	8024cc <__alt_data_end+0xff8024cc>
  8026d0:	9080102c 	andhi	r2,r18,64
  8026d4:	10000226 	beq	r2,zero,8026e0 <__divsf3+0x354>
  8026d8:	8880102c 	andhi	r2,r17,64
  8026dc:	10001826 	beq	r2,zero,802740 <__divsf3+0x3b4>
  8026e0:	00802034 	movhi	r2,128
  8026e4:	91c01034 	orhi	r7,r18,64
  8026e8:	10bfffc4 	addi	r2,r2,-1
  8026ec:	980d883a 	mov	r6,r19
  8026f0:	388e703a 	and	r7,r7,r2
  8026f4:	003fc706 	br	802614 <__alt_data_end+0xff802614>
  8026f8:	00c000c4 	movi	r3,3
  8026fc:	b8c02d26 	beq	r23,r3,8027b4 <__divsf3+0x428>
  802700:	00c00044 	movi	r3,1
  802704:	b011883a 	mov	r8,r22
  802708:	b8ffdd1e 	bne	r23,r3,802680 <__alt_data_end+0xff802680>
  80270c:	4180004c 	andi	r6,r8,1
  802710:	0009883a 	mov	r4,zero
  802714:	000f883a 	mov	r7,zero
  802718:	003f6c06 	br	8024cc <__alt_data_end+0xff8024cc>
  80271c:	9023883a 	mov	r17,r18
  802720:	003f6406 	br	8024b4 <__alt_data_end+0xff8024b4>
  802724:	19c7c83a 	sub	r3,r3,r7
  802728:	01000684 	movi	r4,26
  80272c:	01400044 	movi	r5,1
  802730:	003fc806 	br	802654 <__alt_data_end+0xff802654>
  802734:	9080102c 	andhi	r2,r18,64
  802738:	103fe926 	beq	r2,zero,8026e0 <__alt_data_end+0xff8026e0>
  80273c:	0023883a 	mov	r17,zero
  802740:	00802034 	movhi	r2,128
  802744:	89c01034 	orhi	r7,r17,64
  802748:	10bfffc4 	addi	r2,r2,-1
  80274c:	a80d883a 	mov	r6,r21
  802750:	388e703a 	and	r7,r7,r2
  802754:	003faf06 	br	802614 <__alt_data_end+0xff802614>
  802758:	00800804 	movi	r2,32
  80275c:	1105c83a 	sub	r2,r2,r4
  802760:	8884983a 	sll	r2,r17,r2
  802764:	890ad83a 	srl	r5,r17,r4
  802768:	1004c03a 	cmpne	r2,r2,zero
  80276c:	288ab03a 	or	r5,r5,r2
  802770:	288001cc 	andi	r2,r5,7
  802774:	10000426 	beq	r2,zero,802788 <__divsf3+0x3fc>
  802778:	288003cc 	andi	r2,r5,15
  80277c:	00c00104 	movi	r3,4
  802780:	10c00126 	beq	r2,r3,802788 <__divsf3+0x3fc>
  802784:	28cb883a 	add	r5,r5,r3
  802788:	2881002c 	andhi	r2,r5,1024
  80278c:	10000426 	beq	r2,zero,8027a0 <__divsf3+0x414>
  802790:	4180004c 	andi	r6,r8,1
  802794:	01000044 	movi	r4,1
  802798:	000f883a 	mov	r7,zero
  80279c:	003f4b06 	br	8024cc <__alt_data_end+0xff8024cc>
  8027a0:	280a91ba 	slli	r5,r5,6
  8027a4:	4180004c 	andi	r6,r8,1
  8027a8:	0009883a 	mov	r4,zero
  8027ac:	280ed27a 	srli	r7,r5,9
  8027b0:	003f4606 	br	8024cc <__alt_data_end+0xff8024cc>
  8027b4:	00802034 	movhi	r2,128
  8027b8:	89c01034 	orhi	r7,r17,64
  8027bc:	10bfffc4 	addi	r2,r2,-1
  8027c0:	b00d883a 	mov	r6,r22
  8027c4:	388e703a 	and	r7,r7,r2
  8027c8:	003f9206 	br	802614 <__alt_data_end+0xff802614>

008027cc <__eqsf2>:
  8027cc:	2006d5fa 	srli	r3,r4,23
  8027d0:	280cd5fa 	srli	r6,r5,23
  8027d4:	01c02034 	movhi	r7,128
  8027d8:	39ffffc4 	addi	r7,r7,-1
  8027dc:	18c03fcc 	andi	r3,r3,255
  8027e0:	02003fc4 	movi	r8,255
  8027e4:	3904703a 	and	r2,r7,r4
  8027e8:	31803fcc 	andi	r6,r6,255
  8027ec:	394e703a 	and	r7,r7,r5
  8027f0:	2008d7fa 	srli	r4,r4,31
  8027f4:	280ad7fa 	srli	r5,r5,31
  8027f8:	1a000d26 	beq	r3,r8,802830 <__eqsf2+0x64>
  8027fc:	02003fc4 	movi	r8,255
  802800:	32000826 	beq	r6,r8,802824 <__eqsf2+0x58>
  802804:	19800226 	beq	r3,r6,802810 <__eqsf2+0x44>
  802808:	00800044 	movi	r2,1
  80280c:	f800283a 	ret
  802810:	11fffd1e 	bne	r2,r7,802808 <__alt_data_end+0xff802808>
  802814:	21400926 	beq	r4,r5,80283c <__eqsf2+0x70>
  802818:	183ffb1e 	bne	r3,zero,802808 <__alt_data_end+0xff802808>
  80281c:	1004c03a 	cmpne	r2,r2,zero
  802820:	f800283a 	ret
  802824:	383ff726 	beq	r7,zero,802804 <__alt_data_end+0xff802804>
  802828:	00800044 	movi	r2,1
  80282c:	f800283a 	ret
  802830:	103ff226 	beq	r2,zero,8027fc <__alt_data_end+0xff8027fc>
  802834:	00800044 	movi	r2,1
  802838:	f800283a 	ret
  80283c:	0005883a 	mov	r2,zero
  802840:	f800283a 	ret

00802844 <__gesf2>:
  802844:	2004d5fa 	srli	r2,r4,23
  802848:	2806d5fa 	srli	r3,r5,23
  80284c:	01802034 	movhi	r6,128
  802850:	31bfffc4 	addi	r6,r6,-1
  802854:	10803fcc 	andi	r2,r2,255
  802858:	01c03fc4 	movi	r7,255
  80285c:	3110703a 	and	r8,r6,r4
  802860:	18c03fcc 	andi	r3,r3,255
  802864:	314c703a 	and	r6,r6,r5
  802868:	2008d7fa 	srli	r4,r4,31
  80286c:	280ad7fa 	srli	r5,r5,31
  802870:	11c01926 	beq	r2,r7,8028d8 <__gesf2+0x94>
  802874:	01c03fc4 	movi	r7,255
  802878:	19c00f26 	beq	r3,r7,8028b8 <__gesf2+0x74>
  80287c:	1000061e 	bne	r2,zero,802898 <__gesf2+0x54>
  802880:	400f003a 	cmpeq	r7,r8,zero
  802884:	1800071e 	bne	r3,zero,8028a4 <__gesf2+0x60>
  802888:	3000061e 	bne	r6,zero,8028a4 <__gesf2+0x60>
  80288c:	0005883a 	mov	r2,zero
  802890:	40000e1e 	bne	r8,zero,8028cc <__gesf2+0x88>
  802894:	f800283a 	ret
  802898:	18000a1e 	bne	r3,zero,8028c4 <__gesf2+0x80>
  80289c:	30000b26 	beq	r6,zero,8028cc <__gesf2+0x88>
  8028a0:	000f883a 	mov	r7,zero
  8028a4:	29403fcc 	andi	r5,r5,255
  8028a8:	38000726 	beq	r7,zero,8028c8 <__gesf2+0x84>
  8028ac:	28000826 	beq	r5,zero,8028d0 <__gesf2+0x8c>
  8028b0:	00800044 	movi	r2,1
  8028b4:	f800283a 	ret
  8028b8:	303ff026 	beq	r6,zero,80287c <__alt_data_end+0xff80287c>
  8028bc:	00bfff84 	movi	r2,-2
  8028c0:	f800283a 	ret
  8028c4:	29403fcc 	andi	r5,r5,255
  8028c8:	21400526 	beq	r4,r5,8028e0 <__gesf2+0x9c>
  8028cc:	203ff826 	beq	r4,zero,8028b0 <__alt_data_end+0xff8028b0>
  8028d0:	00bfffc4 	movi	r2,-1
  8028d4:	f800283a 	ret
  8028d8:	403fe626 	beq	r8,zero,802874 <__alt_data_end+0xff802874>
  8028dc:	003ff706 	br	8028bc <__alt_data_end+0xff8028bc>
  8028e0:	18bffa16 	blt	r3,r2,8028cc <__alt_data_end+0xff8028cc>
  8028e4:	10c00216 	blt	r2,r3,8028f0 <__gesf2+0xac>
  8028e8:	323ff836 	bltu	r6,r8,8028cc <__alt_data_end+0xff8028cc>
  8028ec:	4180022e 	bgeu	r8,r6,8028f8 <__gesf2+0xb4>
  8028f0:	203fef1e 	bne	r4,zero,8028b0 <__alt_data_end+0xff8028b0>
  8028f4:	003ff606 	br	8028d0 <__alt_data_end+0xff8028d0>
  8028f8:	0005883a 	mov	r2,zero
  8028fc:	f800283a 	ret

00802900 <__mulsf3>:
  802900:	defff504 	addi	sp,sp,-44
  802904:	dc000115 	stw	r16,4(sp)
  802908:	2020d5fa 	srli	r16,r4,23
  80290c:	dd400615 	stw	r21,24(sp)
  802910:	202ad7fa 	srli	r21,r4,31
  802914:	dc800315 	stw	r18,12(sp)
  802918:	04802034 	movhi	r18,128
  80291c:	df000915 	stw	fp,36(sp)
  802920:	dd000515 	stw	r20,20(sp)
  802924:	94bfffc4 	addi	r18,r18,-1
  802928:	dfc00a15 	stw	ra,40(sp)
  80292c:	ddc00815 	stw	r23,32(sp)
  802930:	dd800715 	stw	r22,28(sp)
  802934:	dcc00415 	stw	r19,16(sp)
  802938:	dc400215 	stw	r17,8(sp)
  80293c:	84003fcc 	andi	r16,r16,255
  802940:	9124703a 	and	r18,r18,r4
  802944:	a829883a 	mov	r20,r21
  802948:	af003fcc 	andi	fp,r21,255
  80294c:	80005426 	beq	r16,zero,802aa0 <__mulsf3+0x1a0>
  802950:	00803fc4 	movi	r2,255
  802954:	80802f26 	beq	r16,r2,802a14 <__mulsf3+0x114>
  802958:	91002034 	orhi	r4,r18,128
  80295c:	202490fa 	slli	r18,r4,3
  802960:	843fe044 	addi	r16,r16,-127
  802964:	0023883a 	mov	r17,zero
  802968:	002f883a 	mov	r23,zero
  80296c:	2804d5fa 	srli	r2,r5,23
  802970:	282cd7fa 	srli	r22,r5,31
  802974:	01002034 	movhi	r4,128
  802978:	213fffc4 	addi	r4,r4,-1
  80297c:	10803fcc 	andi	r2,r2,255
  802980:	2166703a 	and	r19,r4,r5
  802984:	b1803fcc 	andi	r6,r22,255
  802988:	10004c26 	beq	r2,zero,802abc <__mulsf3+0x1bc>
  80298c:	00c03fc4 	movi	r3,255
  802990:	10c04726 	beq	r2,r3,802ab0 <__mulsf3+0x1b0>
  802994:	99002034 	orhi	r4,r19,128
  802998:	202690fa 	slli	r19,r4,3
  80299c:	10bfe044 	addi	r2,r2,-127
  8029a0:	0007883a 	mov	r3,zero
  8029a4:	80a1883a 	add	r16,r16,r2
  8029a8:	010003c4 	movi	r4,15
  8029ac:	1c44b03a 	or	r2,r3,r17
  8029b0:	b56af03a 	xor	r21,r22,r21
  8029b4:	81c00044 	addi	r7,r16,1
  8029b8:	20806b36 	bltu	r4,r2,802b68 <__mulsf3+0x268>
  8029bc:	100490ba 	slli	r2,r2,2
  8029c0:	01002034 	movhi	r4,128
  8029c4:	210a7504 	addi	r4,r4,10708
  8029c8:	1105883a 	add	r2,r2,r4
  8029cc:	10800017 	ldw	r2,0(r2)
  8029d0:	1000683a 	jmp	r2
  8029d4:	00802b68 	cmpgeui	r2,zero,173
  8029d8:	00802a28 	cmpgeui	r2,zero,168
  8029dc:	00802a28 	cmpgeui	r2,zero,168
  8029e0:	00802a24 	muli	r2,zero,168
  8029e4:	00802b4c 	andi	r2,zero,173
  8029e8:	00802b4c 	andi	r2,zero,173
  8029ec:	00802b38 	rdprs	r2,zero,172
  8029f0:	00802a24 	muli	r2,zero,168
  8029f4:	00802b4c 	andi	r2,zero,173
  8029f8:	00802b38 	rdprs	r2,zero,172
  8029fc:	00802b4c 	andi	r2,zero,173
  802a00:	00802a24 	muli	r2,zero,168
  802a04:	00802b58 	cmpnei	r2,zero,173
  802a08:	00802b58 	cmpnei	r2,zero,173
  802a0c:	00802b58 	cmpnei	r2,zero,173
  802a10:	00802c68 	cmpgeui	r2,zero,177
  802a14:	90003b1e 	bne	r18,zero,802b04 <__mulsf3+0x204>
  802a18:	04400204 	movi	r17,8
  802a1c:	05c00084 	movi	r23,2
  802a20:	003fd206 	br	80296c <__alt_data_end+0xff80296c>
  802a24:	302b883a 	mov	r21,r6
  802a28:	00800084 	movi	r2,2
  802a2c:	18802626 	beq	r3,r2,802ac8 <__mulsf3+0x1c8>
  802a30:	008000c4 	movi	r2,3
  802a34:	1880b826 	beq	r3,r2,802d18 <__mulsf3+0x418>
  802a38:	00800044 	movi	r2,1
  802a3c:	1880af1e 	bne	r3,r2,802cfc <__mulsf3+0x3fc>
  802a40:	a829883a 	mov	r20,r21
  802a44:	0007883a 	mov	r3,zero
  802a48:	0009883a 	mov	r4,zero
  802a4c:	18803fcc 	andi	r2,r3,255
  802a50:	100695fa 	slli	r3,r2,23
  802a54:	a0803fcc 	andi	r2,r20,255
  802a58:	100a97fa 	slli	r5,r2,31
  802a5c:	00802034 	movhi	r2,128
  802a60:	10bfffc4 	addi	r2,r2,-1
  802a64:	2084703a 	and	r2,r4,r2
  802a68:	10c4b03a 	or	r2,r2,r3
  802a6c:	1144b03a 	or	r2,r2,r5
  802a70:	dfc00a17 	ldw	ra,40(sp)
  802a74:	df000917 	ldw	fp,36(sp)
  802a78:	ddc00817 	ldw	r23,32(sp)
  802a7c:	dd800717 	ldw	r22,28(sp)
  802a80:	dd400617 	ldw	r21,24(sp)
  802a84:	dd000517 	ldw	r20,20(sp)
  802a88:	dcc00417 	ldw	r19,16(sp)
  802a8c:	dc800317 	ldw	r18,12(sp)
  802a90:	dc400217 	ldw	r17,8(sp)
  802a94:	dc000117 	ldw	r16,4(sp)
  802a98:	dec00b04 	addi	sp,sp,44
  802a9c:	f800283a 	ret
  802aa0:	90000d1e 	bne	r18,zero,802ad8 <__mulsf3+0x1d8>
  802aa4:	04400104 	movi	r17,4
  802aa8:	05c00044 	movi	r23,1
  802aac:	003faf06 	br	80296c <__alt_data_end+0xff80296c>
  802ab0:	9806c03a 	cmpne	r3,r19,zero
  802ab4:	18c00084 	addi	r3,r3,2
  802ab8:	003fba06 	br	8029a4 <__alt_data_end+0xff8029a4>
  802abc:	9800141e 	bne	r19,zero,802b10 <__mulsf3+0x210>
  802ac0:	00c00044 	movi	r3,1
  802ac4:	003fb706 	br	8029a4 <__alt_data_end+0xff8029a4>
  802ac8:	a829883a 	mov	r20,r21
  802acc:	00ffffc4 	movi	r3,-1
  802ad0:	0009883a 	mov	r4,zero
  802ad4:	003fdd06 	br	802a4c <__alt_data_end+0xff802a4c>
  802ad8:	9009883a 	mov	r4,r18
  802adc:	d9400015 	stw	r5,0(sp)
  802ae0:	08047740 	call	804774 <__clzsi2>
  802ae4:	10fffec4 	addi	r3,r2,-5
  802ae8:	043fe284 	movi	r16,-118
  802aec:	90e4983a 	sll	r18,r18,r3
  802af0:	80a1c83a 	sub	r16,r16,r2
  802af4:	0023883a 	mov	r17,zero
  802af8:	002f883a 	mov	r23,zero
  802afc:	d9400017 	ldw	r5,0(sp)
  802b00:	003f9a06 	br	80296c <__alt_data_end+0xff80296c>
  802b04:	04400304 	movi	r17,12
  802b08:	05c000c4 	movi	r23,3
  802b0c:	003f9706 	br	80296c <__alt_data_end+0xff80296c>
  802b10:	9809883a 	mov	r4,r19
  802b14:	d9800015 	stw	r6,0(sp)
  802b18:	08047740 	call	804774 <__clzsi2>
  802b1c:	10fffec4 	addi	r3,r2,-5
  802b20:	98e6983a 	sll	r19,r19,r3
  802b24:	00ffe284 	movi	r3,-118
  802b28:	1885c83a 	sub	r2,r3,r2
  802b2c:	d9800017 	ldw	r6,0(sp)
  802b30:	0007883a 	mov	r3,zero
  802b34:	003f9b06 	br	8029a4 <__alt_data_end+0xff8029a4>
  802b38:	01002034 	movhi	r4,128
  802b3c:	0029883a 	mov	r20,zero
  802b40:	213fffc4 	addi	r4,r4,-1
  802b44:	00ffffc4 	movi	r3,-1
  802b48:	003fc006 	br	802a4c <__alt_data_end+0xff802a4c>
  802b4c:	9027883a 	mov	r19,r18
  802b50:	b807883a 	mov	r3,r23
  802b54:	003fb406 	br	802a28 <__alt_data_end+0xff802a28>
  802b58:	9027883a 	mov	r19,r18
  802b5c:	e02b883a 	mov	r21,fp
  802b60:	b807883a 	mov	r3,r23
  802b64:	003fb006 	br	802a28 <__alt_data_end+0xff802a28>
  802b68:	9028d43a 	srli	r20,r18,16
  802b6c:	982cd43a 	srli	r22,r19,16
  802b70:	94bfffcc 	andi	r18,r18,65535
  802b74:	9cffffcc 	andi	r19,r19,65535
  802b78:	980b883a 	mov	r5,r19
  802b7c:	9009883a 	mov	r4,r18
  802b80:	d9c00015 	stw	r7,0(sp)
  802b84:	08047d80 	call	8047d8 <__mulsi3>
  802b88:	a00b883a 	mov	r5,r20
  802b8c:	9809883a 	mov	r4,r19
  802b90:	1023883a 	mov	r17,r2
  802b94:	08047d80 	call	8047d8 <__mulsi3>
  802b98:	a009883a 	mov	r4,r20
  802b9c:	b00b883a 	mov	r5,r22
  802ba0:	1027883a 	mov	r19,r2
  802ba4:	08047d80 	call	8047d8 <__mulsi3>
  802ba8:	b00b883a 	mov	r5,r22
  802bac:	9009883a 	mov	r4,r18
  802bb0:	1029883a 	mov	r20,r2
  802bb4:	08047d80 	call	8047d8 <__mulsi3>
  802bb8:	8806d43a 	srli	r3,r17,16
  802bbc:	14c5883a 	add	r2,r2,r19
  802bc0:	d9c00017 	ldw	r7,0(sp)
  802bc4:	1885883a 	add	r2,r3,r2
  802bc8:	14c0022e 	bgeu	r2,r19,802bd4 <__mulsf3+0x2d4>
  802bcc:	00c00074 	movhi	r3,1
  802bd0:	a0e9883a 	add	r20,r20,r3
  802bd4:	1026943a 	slli	r19,r2,16
  802bd8:	8c7fffcc 	andi	r17,r17,65535
  802bdc:	1004d43a 	srli	r2,r2,16
  802be0:	9c63883a 	add	r17,r19,r17
  802be4:	882691ba 	slli	r19,r17,6
  802be8:	1505883a 	add	r2,r2,r20
  802bec:	8822d6ba 	srli	r17,r17,26
  802bf0:	100891ba 	slli	r4,r2,6
  802bf4:	9826c03a 	cmpne	r19,r19,zero
  802bf8:	9c62b03a 	or	r17,r19,r17
  802bfc:	8926b03a 	or	r19,r17,r4
  802c00:	9882002c 	andhi	r2,r19,2048
  802c04:	10000426 	beq	r2,zero,802c18 <__mulsf3+0x318>
  802c08:	9804d07a 	srli	r2,r19,1
  802c0c:	9900004c 	andi	r4,r19,1
  802c10:	3821883a 	mov	r16,r7
  802c14:	1126b03a 	or	r19,r2,r4
  802c18:	80c01fc4 	addi	r3,r16,127
  802c1c:	00c0210e 	bge	zero,r3,802ca4 <__mulsf3+0x3a4>
  802c20:	988001cc 	andi	r2,r19,7
  802c24:	10000426 	beq	r2,zero,802c38 <__mulsf3+0x338>
  802c28:	988003cc 	andi	r2,r19,15
  802c2c:	01000104 	movi	r4,4
  802c30:	11000126 	beq	r2,r4,802c38 <__mulsf3+0x338>
  802c34:	9927883a 	add	r19,r19,r4
  802c38:	9882002c 	andhi	r2,r19,2048
  802c3c:	10000426 	beq	r2,zero,802c50 <__mulsf3+0x350>
  802c40:	00be0034 	movhi	r2,63488
  802c44:	10bfffc4 	addi	r2,r2,-1
  802c48:	80c02004 	addi	r3,r16,128
  802c4c:	98a6703a 	and	r19,r19,r2
  802c50:	00803f84 	movi	r2,254
  802c54:	10ff9c16 	blt	r2,r3,802ac8 <__alt_data_end+0xff802ac8>
  802c58:	980891ba 	slli	r4,r19,6
  802c5c:	a829883a 	mov	r20,r21
  802c60:	2008d27a 	srli	r4,r4,9
  802c64:	003f7906 	br	802a4c <__alt_data_end+0xff802a4c>
  802c68:	9080102c 	andhi	r2,r18,64
  802c6c:	10000826 	beq	r2,zero,802c90 <__mulsf3+0x390>
  802c70:	9880102c 	andhi	r2,r19,64
  802c74:	1000061e 	bne	r2,zero,802c90 <__mulsf3+0x390>
  802c78:	00802034 	movhi	r2,128
  802c7c:	99001034 	orhi	r4,r19,64
  802c80:	10bfffc4 	addi	r2,r2,-1
  802c84:	b029883a 	mov	r20,r22
  802c88:	2088703a 	and	r4,r4,r2
  802c8c:	003fad06 	br	802b44 <__alt_data_end+0xff802b44>
  802c90:	00802034 	movhi	r2,128
  802c94:	91001034 	orhi	r4,r18,64
  802c98:	10bfffc4 	addi	r2,r2,-1
  802c9c:	2088703a 	and	r4,r4,r2
  802ca0:	003fa806 	br	802b44 <__alt_data_end+0xff802b44>
  802ca4:	00800044 	movi	r2,1
  802ca8:	10c7c83a 	sub	r3,r2,r3
  802cac:	008006c4 	movi	r2,27
  802cb0:	10ff6316 	blt	r2,r3,802a40 <__alt_data_end+0xff802a40>
  802cb4:	00800804 	movi	r2,32
  802cb8:	10c5c83a 	sub	r2,r2,r3
  802cbc:	9884983a 	sll	r2,r19,r2
  802cc0:	98c6d83a 	srl	r3,r19,r3
  802cc4:	1004c03a 	cmpne	r2,r2,zero
  802cc8:	1884b03a 	or	r2,r3,r2
  802ccc:	10c001cc 	andi	r3,r2,7
  802cd0:	18000426 	beq	r3,zero,802ce4 <__mulsf3+0x3e4>
  802cd4:	10c003cc 	andi	r3,r2,15
  802cd8:	01000104 	movi	r4,4
  802cdc:	19000126 	beq	r3,r4,802ce4 <__mulsf3+0x3e4>
  802ce0:	1105883a 	add	r2,r2,r4
  802ce4:	10c1002c 	andhi	r3,r2,1024
  802ce8:	18000626 	beq	r3,zero,802d04 <__mulsf3+0x404>
  802cec:	a829883a 	mov	r20,r21
  802cf0:	00c00044 	movi	r3,1
  802cf4:	0009883a 	mov	r4,zero
  802cf8:	003f5406 	br	802a4c <__alt_data_end+0xff802a4c>
  802cfc:	3821883a 	mov	r16,r7
  802d00:	003fc506 	br	802c18 <__alt_data_end+0xff802c18>
  802d04:	100491ba 	slli	r2,r2,6
  802d08:	a829883a 	mov	r20,r21
  802d0c:	0007883a 	mov	r3,zero
  802d10:	1008d27a 	srli	r4,r2,9
  802d14:	003f4d06 	br	802a4c <__alt_data_end+0xff802a4c>
  802d18:	00802034 	movhi	r2,128
  802d1c:	99001034 	orhi	r4,r19,64
  802d20:	10bfffc4 	addi	r2,r2,-1
  802d24:	a829883a 	mov	r20,r21
  802d28:	2088703a 	and	r4,r4,r2
  802d2c:	003f8506 	br	802b44 <__alt_data_end+0xff802b44>

00802d30 <__subsf3>:
  802d30:	defffc04 	addi	sp,sp,-16
  802d34:	280cd5fa 	srli	r6,r5,23
  802d38:	dc000015 	stw	r16,0(sp)
  802d3c:	01c02034 	movhi	r7,128
  802d40:	2020d5fa 	srli	r16,r4,23
  802d44:	39ffffc4 	addi	r7,r7,-1
  802d48:	3906703a 	and	r3,r7,r4
  802d4c:	dc400115 	stw	r17,4(sp)
  802d50:	394e703a 	and	r7,r7,r5
  802d54:	2022d7fa 	srli	r17,r4,31
  802d58:	dfc00315 	stw	ra,12(sp)
  802d5c:	dc800215 	stw	r18,8(sp)
  802d60:	31803fcc 	andi	r6,r6,255
  802d64:	01003fc4 	movi	r4,255
  802d68:	84003fcc 	andi	r16,r16,255
  802d6c:	180690fa 	slli	r3,r3,3
  802d70:	2804d7fa 	srli	r2,r5,31
  802d74:	380e90fa 	slli	r7,r7,3
  802d78:	31006d26 	beq	r6,r4,802f30 <__subsf3+0x200>
  802d7c:	1080005c 	xori	r2,r2,1
  802d80:	8189c83a 	sub	r4,r16,r6
  802d84:	14404f26 	beq	r2,r17,802ec4 <__subsf3+0x194>
  802d88:	0100770e 	bge	zero,r4,802f68 <__subsf3+0x238>
  802d8c:	30001e1e 	bne	r6,zero,802e08 <__subsf3+0xd8>
  802d90:	38006a1e 	bne	r7,zero,802f3c <__subsf3+0x20c>
  802d94:	188001cc 	andi	r2,r3,7
  802d98:	10000426 	beq	r2,zero,802dac <__subsf3+0x7c>
  802d9c:	188003cc 	andi	r2,r3,15
  802da0:	01000104 	movi	r4,4
  802da4:	11000126 	beq	r2,r4,802dac <__subsf3+0x7c>
  802da8:	1907883a 	add	r3,r3,r4
  802dac:	1881002c 	andhi	r2,r3,1024
  802db0:	10003926 	beq	r2,zero,802e98 <__subsf3+0x168>
  802db4:	84000044 	addi	r16,r16,1
  802db8:	00803fc4 	movi	r2,255
  802dbc:	80807526 	beq	r16,r2,802f94 <__subsf3+0x264>
  802dc0:	180691ba 	slli	r3,r3,6
  802dc4:	8880004c 	andi	r2,r17,1
  802dc8:	180ad27a 	srli	r5,r3,9
  802dcc:	84003fcc 	andi	r16,r16,255
  802dd0:	800695fa 	slli	r3,r16,23
  802dd4:	10803fcc 	andi	r2,r2,255
  802dd8:	01002034 	movhi	r4,128
  802ddc:	213fffc4 	addi	r4,r4,-1
  802de0:	100497fa 	slli	r2,r2,31
  802de4:	2920703a 	and	r16,r5,r4
  802de8:	80e0b03a 	or	r16,r16,r3
  802dec:	8084b03a 	or	r2,r16,r2
  802df0:	dfc00317 	ldw	ra,12(sp)
  802df4:	dc800217 	ldw	r18,8(sp)
  802df8:	dc400117 	ldw	r17,4(sp)
  802dfc:	dc000017 	ldw	r16,0(sp)
  802e00:	dec00404 	addi	sp,sp,16
  802e04:	f800283a 	ret
  802e08:	00803fc4 	movi	r2,255
  802e0c:	80bfe126 	beq	r16,r2,802d94 <__alt_data_end+0xff802d94>
  802e10:	39c10034 	orhi	r7,r7,1024
  802e14:	008006c4 	movi	r2,27
  802e18:	11007416 	blt	r2,r4,802fec <__subsf3+0x2bc>
  802e1c:	00800804 	movi	r2,32
  802e20:	1105c83a 	sub	r2,r2,r4
  802e24:	3884983a 	sll	r2,r7,r2
  802e28:	390ed83a 	srl	r7,r7,r4
  802e2c:	1008c03a 	cmpne	r4,r2,zero
  802e30:	390eb03a 	or	r7,r7,r4
  802e34:	19c7c83a 	sub	r3,r3,r7
  802e38:	1881002c 	andhi	r2,r3,1024
  802e3c:	10001426 	beq	r2,zero,802e90 <__subsf3+0x160>
  802e40:	04810034 	movhi	r18,1024
  802e44:	94bfffc4 	addi	r18,r18,-1
  802e48:	1ca4703a 	and	r18,r3,r18
  802e4c:	9009883a 	mov	r4,r18
  802e50:	08047740 	call	804774 <__clzsi2>
  802e54:	10bffec4 	addi	r2,r2,-5
  802e58:	90a4983a 	sll	r18,r18,r2
  802e5c:	14005116 	blt	r2,r16,802fa4 <__subsf3+0x274>
  802e60:	1405c83a 	sub	r2,r2,r16
  802e64:	10c00044 	addi	r3,r2,1
  802e68:	00800804 	movi	r2,32
  802e6c:	10c5c83a 	sub	r2,r2,r3
  802e70:	9084983a 	sll	r2,r18,r2
  802e74:	90e4d83a 	srl	r18,r18,r3
  802e78:	0021883a 	mov	r16,zero
  802e7c:	1006c03a 	cmpne	r3,r2,zero
  802e80:	90c6b03a 	or	r3,r18,r3
  802e84:	003fc306 	br	802d94 <__alt_data_end+0xff802d94>
  802e88:	2000e026 	beq	r4,zero,80320c <__subsf3+0x4dc>
  802e8c:	2007883a 	mov	r3,r4
  802e90:	188001cc 	andi	r2,r3,7
  802e94:	103fc11e 	bne	r2,zero,802d9c <__alt_data_end+0xff802d9c>
  802e98:	180ad0fa 	srli	r5,r3,3
  802e9c:	00c03fc4 	movi	r3,255
  802ea0:	8880004c 	andi	r2,r17,1
  802ea4:	80c0031e 	bne	r16,r3,802eb4 <__subsf3+0x184>
  802ea8:	28006d26 	beq	r5,zero,803060 <__subsf3+0x330>
  802eac:	29401034 	orhi	r5,r5,64
  802eb0:	043fffc4 	movi	r16,-1
  802eb4:	00c02034 	movhi	r3,128
  802eb8:	18ffffc4 	addi	r3,r3,-1
  802ebc:	28ca703a 	and	r5,r5,r3
  802ec0:	003fc206 	br	802dcc <__alt_data_end+0xff802dcc>
  802ec4:	01003c0e 	bge	zero,r4,802fb8 <__subsf3+0x288>
  802ec8:	30002126 	beq	r6,zero,802f50 <__subsf3+0x220>
  802ecc:	01403fc4 	movi	r5,255
  802ed0:	817fb026 	beq	r16,r5,802d94 <__alt_data_end+0xff802d94>
  802ed4:	39c10034 	orhi	r7,r7,1024
  802ed8:	014006c4 	movi	r5,27
  802edc:	29007416 	blt	r5,r4,8030b0 <__subsf3+0x380>
  802ee0:	01400804 	movi	r5,32
  802ee4:	290bc83a 	sub	r5,r5,r4
  802ee8:	394a983a 	sll	r5,r7,r5
  802eec:	390ed83a 	srl	r7,r7,r4
  802ef0:	2808c03a 	cmpne	r4,r5,zero
  802ef4:	390eb03a 	or	r7,r7,r4
  802ef8:	19c7883a 	add	r3,r3,r7
  802efc:	1901002c 	andhi	r4,r3,1024
  802f00:	20003826 	beq	r4,zero,802fe4 <__subsf3+0x2b4>
  802f04:	84000044 	addi	r16,r16,1
  802f08:	01003fc4 	movi	r4,255
  802f0c:	81005426 	beq	r16,r4,803060 <__subsf3+0x330>
  802f10:	1023883a 	mov	r17,r2
  802f14:	00bf0034 	movhi	r2,64512
  802f18:	10bfffc4 	addi	r2,r2,-1
  802f1c:	1900004c 	andi	r4,r3,1
  802f20:	1886703a 	and	r3,r3,r2
  802f24:	1806d07a 	srli	r3,r3,1
  802f28:	1906b03a 	or	r3,r3,r4
  802f2c:	003f9906 	br	802d94 <__alt_data_end+0xff802d94>
  802f30:	383f9226 	beq	r7,zero,802d7c <__alt_data_end+0xff802d7c>
  802f34:	10803fcc 	andi	r2,r2,255
  802f38:	003f9106 	br	802d80 <__alt_data_end+0xff802d80>
  802f3c:	213fffc4 	addi	r4,r4,-1
  802f40:	203fbc26 	beq	r4,zero,802e34 <__alt_data_end+0xff802e34>
  802f44:	00803fc4 	movi	r2,255
  802f48:	80bfb21e 	bne	r16,r2,802e14 <__alt_data_end+0xff802e14>
  802f4c:	003f9106 	br	802d94 <__alt_data_end+0xff802d94>
  802f50:	383f9026 	beq	r7,zero,802d94 <__alt_data_end+0xff802d94>
  802f54:	213fffc4 	addi	r4,r4,-1
  802f58:	203fe726 	beq	r4,zero,802ef8 <__alt_data_end+0xff802ef8>
  802f5c:	01403fc4 	movi	r5,255
  802f60:	817fdd1e 	bne	r16,r5,802ed8 <__alt_data_end+0xff802ed8>
  802f64:	003f8b06 	br	802d94 <__alt_data_end+0xff802d94>
  802f68:	2000221e 	bne	r4,zero,802ff4 <__subsf3+0x2c4>
  802f6c:	81000044 	addi	r4,r16,1
  802f70:	21003fcc 	andi	r4,r4,255
  802f74:	01400044 	movi	r5,1
  802f78:	2900470e 	bge	r5,r4,803098 <__subsf3+0x368>
  802f7c:	19e5c83a 	sub	r18,r3,r7
  802f80:	9141002c 	andhi	r5,r18,1024
  802f84:	28002d26 	beq	r5,zero,80303c <__subsf3+0x30c>
  802f88:	38e5c83a 	sub	r18,r7,r3
  802f8c:	1023883a 	mov	r17,r2
  802f90:	003fae06 	br	802e4c <__alt_data_end+0xff802e4c>
  802f94:	8880004c 	andi	r2,r17,1
  802f98:	043fffc4 	movi	r16,-1
  802f9c:	000b883a 	mov	r5,zero
  802fa0:	003f8a06 	br	802dcc <__alt_data_end+0xff802dcc>
  802fa4:	00ff0034 	movhi	r3,64512
  802fa8:	18ffffc4 	addi	r3,r3,-1
  802fac:	80a1c83a 	sub	r16,r16,r2
  802fb0:	90c6703a 	and	r3,r18,r3
  802fb4:	003f7706 	br	802d94 <__alt_data_end+0xff802d94>
  802fb8:	2000431e 	bne	r4,zero,8030c8 <__subsf3+0x398>
  802fbc:	81000044 	addi	r4,r16,1
  802fc0:	21803fcc 	andi	r6,r4,255
  802fc4:	01400044 	movi	r5,1
  802fc8:	2980280e 	bge	r5,r6,80306c <__subsf3+0x33c>
  802fcc:	01403fc4 	movi	r5,255
  802fd0:	21402326 	beq	r4,r5,803060 <__subsf3+0x330>
  802fd4:	19c7883a 	add	r3,r3,r7
  802fd8:	1806d07a 	srli	r3,r3,1
  802fdc:	2021883a 	mov	r16,r4
  802fe0:	003f6c06 	br	802d94 <__alt_data_end+0xff802d94>
  802fe4:	1023883a 	mov	r17,r2
  802fe8:	003fa906 	br	802e90 <__alt_data_end+0xff802e90>
  802fec:	01c00044 	movi	r7,1
  802ff0:	003f9006 	br	802e34 <__alt_data_end+0xff802e34>
  802ff4:	8000151e 	bne	r16,zero,80304c <__subsf3+0x31c>
  802ff8:	18002f26 	beq	r3,zero,8030b8 <__subsf3+0x388>
  802ffc:	0108303a 	nor	r4,zero,r4
  803000:	20000a26 	beq	r4,zero,80302c <__subsf3+0x2fc>
  803004:	01403fc4 	movi	r5,255
  803008:	31402b26 	beq	r6,r5,8030b8 <__subsf3+0x388>
  80300c:	014006c4 	movi	r5,27
  803010:	29006e16 	blt	r5,r4,8031cc <__subsf3+0x49c>
  803014:	01400804 	movi	r5,32
  803018:	290bc83a 	sub	r5,r5,r4
  80301c:	194a983a 	sll	r5,r3,r5
  803020:	1908d83a 	srl	r4,r3,r4
  803024:	2806c03a 	cmpne	r3,r5,zero
  803028:	20c6b03a 	or	r3,r4,r3
  80302c:	38c7c83a 	sub	r3,r7,r3
  803030:	3021883a 	mov	r16,r6
  803034:	1023883a 	mov	r17,r2
  803038:	003f7f06 	br	802e38 <__alt_data_end+0xff802e38>
  80303c:	903f831e 	bne	r18,zero,802e4c <__alt_data_end+0xff802e4c>
  803040:	0005883a 	mov	r2,zero
  803044:	0021883a 	mov	r16,zero
  803048:	003f9a06 	br	802eb4 <__alt_data_end+0xff802eb4>
  80304c:	01403fc4 	movi	r5,255
  803050:	31401926 	beq	r6,r5,8030b8 <__subsf3+0x388>
  803054:	0109c83a 	sub	r4,zero,r4
  803058:	18c10034 	orhi	r3,r3,1024
  80305c:	003feb06 	br	80300c <__alt_data_end+0xff80300c>
  803060:	043fffc4 	movi	r16,-1
  803064:	000b883a 	mov	r5,zero
  803068:	003f5806 	br	802dcc <__alt_data_end+0xff802dcc>
  80306c:	8000481e 	bne	r16,zero,803190 <__subsf3+0x460>
  803070:	18006226 	beq	r3,zero,8031fc <__subsf3+0x4cc>
  803074:	383f4726 	beq	r7,zero,802d94 <__alt_data_end+0xff802d94>
  803078:	19c7883a 	add	r3,r3,r7
  80307c:	1881002c 	andhi	r2,r3,1024
  803080:	103f8326 	beq	r2,zero,802e90 <__alt_data_end+0xff802e90>
  803084:	00bf0034 	movhi	r2,64512
  803088:	10bfffc4 	addi	r2,r2,-1
  80308c:	2821883a 	mov	r16,r5
  803090:	1886703a 	and	r3,r3,r2
  803094:	003f3f06 	br	802d94 <__alt_data_end+0xff802d94>
  803098:	80001c1e 	bne	r16,zero,80310c <__subsf3+0x3dc>
  80309c:	1800261e 	bne	r3,zero,803138 <__subsf3+0x408>
  8030a0:	38004c26 	beq	r7,zero,8031d4 <__subsf3+0x4a4>
  8030a4:	3807883a 	mov	r3,r7
  8030a8:	1023883a 	mov	r17,r2
  8030ac:	003f3906 	br	802d94 <__alt_data_end+0xff802d94>
  8030b0:	01c00044 	movi	r7,1
  8030b4:	003f9006 	br	802ef8 <__alt_data_end+0xff802ef8>
  8030b8:	3807883a 	mov	r3,r7
  8030bc:	3021883a 	mov	r16,r6
  8030c0:	1023883a 	mov	r17,r2
  8030c4:	003f3306 	br	802d94 <__alt_data_end+0xff802d94>
  8030c8:	8000161e 	bne	r16,zero,803124 <__subsf3+0x3f4>
  8030cc:	18002d26 	beq	r3,zero,803184 <__subsf3+0x454>
  8030d0:	0108303a 	nor	r4,zero,r4
  8030d4:	20000a26 	beq	r4,zero,803100 <__subsf3+0x3d0>
  8030d8:	01403fc4 	movi	r5,255
  8030dc:	31402926 	beq	r6,r5,803184 <__subsf3+0x454>
  8030e0:	014006c4 	movi	r5,27
  8030e4:	29004716 	blt	r5,r4,803204 <__subsf3+0x4d4>
  8030e8:	01400804 	movi	r5,32
  8030ec:	290bc83a 	sub	r5,r5,r4
  8030f0:	194a983a 	sll	r5,r3,r5
  8030f4:	1908d83a 	srl	r4,r3,r4
  8030f8:	2806c03a 	cmpne	r3,r5,zero
  8030fc:	20c6b03a 	or	r3,r4,r3
  803100:	19c7883a 	add	r3,r3,r7
  803104:	3021883a 	mov	r16,r6
  803108:	003f7c06 	br	802efc <__alt_data_end+0xff802efc>
  80310c:	1800111e 	bne	r3,zero,803154 <__subsf3+0x424>
  803110:	38003326 	beq	r7,zero,8031e0 <__subsf3+0x4b0>
  803114:	3807883a 	mov	r3,r7
  803118:	1023883a 	mov	r17,r2
  80311c:	04003fc4 	movi	r16,255
  803120:	003f1c06 	br	802d94 <__alt_data_end+0xff802d94>
  803124:	01403fc4 	movi	r5,255
  803128:	31401626 	beq	r6,r5,803184 <__subsf3+0x454>
  80312c:	0109c83a 	sub	r4,zero,r4
  803130:	18c10034 	orhi	r3,r3,1024
  803134:	003fea06 	br	8030e0 <__alt_data_end+0xff8030e0>
  803138:	383f1626 	beq	r7,zero,802d94 <__alt_data_end+0xff802d94>
  80313c:	19c9c83a 	sub	r4,r3,r7
  803140:	2141002c 	andhi	r5,r4,1024
  803144:	283f5026 	beq	r5,zero,802e88 <__alt_data_end+0xff802e88>
  803148:	38c7c83a 	sub	r3,r7,r3
  80314c:	1023883a 	mov	r17,r2
  803150:	003f1006 	br	802d94 <__alt_data_end+0xff802d94>
  803154:	38001b26 	beq	r7,zero,8031c4 <__subsf3+0x494>
  803158:	1806d0fa 	srli	r3,r3,3
  80315c:	1900102c 	andhi	r4,r3,64
  803160:	20000526 	beq	r4,zero,803178 <__subsf3+0x448>
  803164:	380ed0fa 	srli	r7,r7,3
  803168:	3900102c 	andhi	r4,r7,64
  80316c:	2000021e 	bne	r4,zero,803178 <__subsf3+0x448>
  803170:	3807883a 	mov	r3,r7
  803174:	1023883a 	mov	r17,r2
  803178:	180690fa 	slli	r3,r3,3
  80317c:	04003fc4 	movi	r16,255
  803180:	003f0406 	br	802d94 <__alt_data_end+0xff802d94>
  803184:	3807883a 	mov	r3,r7
  803188:	3021883a 	mov	r16,r6
  80318c:	003f0106 	br	802d94 <__alt_data_end+0xff802d94>
  803190:	18001726 	beq	r3,zero,8031f0 <__subsf3+0x4c0>
  803194:	38000b26 	beq	r7,zero,8031c4 <__subsf3+0x494>
  803198:	1806d0fa 	srli	r3,r3,3
  80319c:	1900102c 	andhi	r4,r3,64
  8031a0:	20000426 	beq	r4,zero,8031b4 <__subsf3+0x484>
  8031a4:	380ed0fa 	srli	r7,r7,3
  8031a8:	3900102c 	andhi	r4,r7,64
  8031ac:	2000011e 	bne	r4,zero,8031b4 <__subsf3+0x484>
  8031b0:	3807883a 	mov	r3,r7
  8031b4:	180690fa 	slli	r3,r3,3
  8031b8:	1023883a 	mov	r17,r2
  8031bc:	04003fc4 	movi	r16,255
  8031c0:	003ef406 	br	802d94 <__alt_data_end+0xff802d94>
  8031c4:	04003fc4 	movi	r16,255
  8031c8:	003ef206 	br	802d94 <__alt_data_end+0xff802d94>
  8031cc:	00c00044 	movi	r3,1
  8031d0:	003f9606 	br	80302c <__alt_data_end+0xff80302c>
  8031d4:	000b883a 	mov	r5,zero
  8031d8:	0005883a 	mov	r2,zero
  8031dc:	003f3506 	br	802eb4 <__alt_data_end+0xff802eb4>
  8031e0:	01402034 	movhi	r5,128
  8031e4:	297fffc4 	addi	r5,r5,-1
  8031e8:	0005883a 	mov	r2,zero
  8031ec:	003f2f06 	br	802eac <__alt_data_end+0xff802eac>
  8031f0:	3807883a 	mov	r3,r7
  8031f4:	04003fc4 	movi	r16,255
  8031f8:	003ee606 	br	802d94 <__alt_data_end+0xff802d94>
  8031fc:	3807883a 	mov	r3,r7
  803200:	003ee406 	br	802d94 <__alt_data_end+0xff802d94>
  803204:	00c00044 	movi	r3,1
  803208:	003fbd06 	br	803100 <__alt_data_end+0xff803100>
  80320c:	0005883a 	mov	r2,zero
  803210:	003f2806 	br	802eb4 <__alt_data_end+0xff802eb4>

00803214 <__fixsfsi>:
  803214:	200ad5fa 	srli	r5,r4,23
  803218:	00c02034 	movhi	r3,128
  80321c:	18ffffc4 	addi	r3,r3,-1
  803220:	29403fcc 	andi	r5,r5,255
  803224:	00801f84 	movi	r2,126
  803228:	1906703a 	and	r3,r3,r4
  80322c:	2008d7fa 	srli	r4,r4,31
  803230:	11400e0e 	bge	r2,r5,80326c <__fixsfsi+0x58>
  803234:	00802744 	movi	r2,157
  803238:	11400816 	blt	r2,r5,80325c <__fixsfsi+0x48>
  80323c:	00802544 	movi	r2,149
  803240:	18c02034 	orhi	r3,r3,128
  803244:	11400b0e 	bge	r2,r5,803274 <__fixsfsi+0x60>
  803248:	28bfda84 	addi	r2,r5,-150
  80324c:	1884983a 	sll	r2,r3,r2
  803250:	20000726 	beq	r4,zero,803270 <__fixsfsi+0x5c>
  803254:	0085c83a 	sub	r2,zero,r2
  803258:	f800283a 	ret
  80325c:	00a00034 	movhi	r2,32768
  803260:	10bfffc4 	addi	r2,r2,-1
  803264:	2085883a 	add	r2,r4,r2
  803268:	f800283a 	ret
  80326c:	0005883a 	mov	r2,zero
  803270:	f800283a 	ret
  803274:	00802584 	movi	r2,150
  803278:	1145c83a 	sub	r2,r2,r5
  80327c:	1884d83a 	srl	r2,r3,r2
  803280:	003ff306 	br	803250 <__alt_data_end+0xff803250>

00803284 <__floatsisf>:
  803284:	defffd04 	addi	sp,sp,-12
  803288:	dfc00215 	stw	ra,8(sp)
  80328c:	dc400115 	stw	r17,4(sp)
  803290:	dc000015 	stw	r16,0(sp)
  803294:	20003526 	beq	r4,zero,80336c <__floatsisf+0xe8>
  803298:	2021883a 	mov	r16,r4
  80329c:	2022d7fa 	srli	r17,r4,31
  8032a0:	20003616 	blt	r4,zero,80337c <__floatsisf+0xf8>
  8032a4:	8009883a 	mov	r4,r16
  8032a8:	08047740 	call	804774 <__clzsi2>
  8032ac:	00c02784 	movi	r3,158
  8032b0:	1887c83a 	sub	r3,r3,r2
  8032b4:	01002584 	movi	r4,150
  8032b8:	20c01416 	blt	r4,r3,80330c <__floatsisf+0x88>
  8032bc:	20c9c83a 	sub	r4,r4,r3
  8032c0:	8120983a 	sll	r16,r16,r4
  8032c4:	00802034 	movhi	r2,128
  8032c8:	10bfffc4 	addi	r2,r2,-1
  8032cc:	8809883a 	mov	r4,r17
  8032d0:	80a0703a 	and	r16,r16,r2
  8032d4:	18803fcc 	andi	r2,r3,255
  8032d8:	100695fa 	slli	r3,r2,23
  8032dc:	20803fcc 	andi	r2,r4,255
  8032e0:	100897fa 	slli	r4,r2,31
  8032e4:	00802034 	movhi	r2,128
  8032e8:	10bfffc4 	addi	r2,r2,-1
  8032ec:	8084703a 	and	r2,r16,r2
  8032f0:	10c4b03a 	or	r2,r2,r3
  8032f4:	1104b03a 	or	r2,r2,r4
  8032f8:	dfc00217 	ldw	ra,8(sp)
  8032fc:	dc400117 	ldw	r17,4(sp)
  803300:	dc000017 	ldw	r16,0(sp)
  803304:	dec00304 	addi	sp,sp,12
  803308:	f800283a 	ret
  80330c:	01002644 	movi	r4,153
  803310:	20c01c16 	blt	r4,r3,803384 <__floatsisf+0x100>
  803314:	20c9c83a 	sub	r4,r4,r3
  803318:	8120983a 	sll	r16,r16,r4
  80331c:	013f0034 	movhi	r4,64512
  803320:	213fffc4 	addi	r4,r4,-1
  803324:	814001cc 	andi	r5,r16,7
  803328:	8108703a 	and	r4,r16,r4
  80332c:	28000426 	beq	r5,zero,803340 <__floatsisf+0xbc>
  803330:	840003cc 	andi	r16,r16,15
  803334:	01400104 	movi	r5,4
  803338:	81400126 	beq	r16,r5,803340 <__floatsisf+0xbc>
  80333c:	2149883a 	add	r4,r4,r5
  803340:	2141002c 	andhi	r5,r4,1024
  803344:	28000526 	beq	r5,zero,80335c <__floatsisf+0xd8>
  803348:	00c027c4 	movi	r3,159
  80334c:	1887c83a 	sub	r3,r3,r2
  803350:	00bf0034 	movhi	r2,64512
  803354:	10bfffc4 	addi	r2,r2,-1
  803358:	2088703a 	and	r4,r4,r2
  80335c:	202091ba 	slli	r16,r4,6
  803360:	8809883a 	mov	r4,r17
  803364:	8020d27a 	srli	r16,r16,9
  803368:	003fda06 	br	8032d4 <__alt_data_end+0xff8032d4>
  80336c:	0009883a 	mov	r4,zero
  803370:	0007883a 	mov	r3,zero
  803374:	0021883a 	mov	r16,zero
  803378:	003fd606 	br	8032d4 <__alt_data_end+0xff8032d4>
  80337c:	0121c83a 	sub	r16,zero,r4
  803380:	003fc806 	br	8032a4 <__alt_data_end+0xff8032a4>
  803384:	01002e44 	movi	r4,185
  803388:	20c9c83a 	sub	r4,r4,r3
  80338c:	01400144 	movi	r5,5
  803390:	8108983a 	sll	r4,r16,r4
  803394:	288bc83a 	sub	r5,r5,r2
  803398:	8160d83a 	srl	r16,r16,r5
  80339c:	2008c03a 	cmpne	r4,r4,zero
  8033a0:	8120b03a 	or	r16,r16,r4
  8033a4:	003fdd06 	br	80331c <__alt_data_end+0xff80331c>

008033a8 <__adddf3>:
  8033a8:	02c00434 	movhi	r11,16
  8033ac:	5affffc4 	addi	r11,r11,-1
  8033b0:	2806d7fa 	srli	r3,r5,31
  8033b4:	2ad4703a 	and	r10,r5,r11
  8033b8:	3ad2703a 	and	r9,r7,r11
  8033bc:	3804d53a 	srli	r2,r7,20
  8033c0:	3018d77a 	srli	r12,r6,29
  8033c4:	280ad53a 	srli	r5,r5,20
  8033c8:	501490fa 	slli	r10,r10,3
  8033cc:	2010d77a 	srli	r8,r4,29
  8033d0:	481290fa 	slli	r9,r9,3
  8033d4:	380ed7fa 	srli	r7,r7,31
  8033d8:	defffb04 	addi	sp,sp,-20
  8033dc:	dc800215 	stw	r18,8(sp)
  8033e0:	dc400115 	stw	r17,4(sp)
  8033e4:	dc000015 	stw	r16,0(sp)
  8033e8:	dfc00415 	stw	ra,16(sp)
  8033ec:	dcc00315 	stw	r19,12(sp)
  8033f0:	1c803fcc 	andi	r18,r3,255
  8033f4:	2c01ffcc 	andi	r16,r5,2047
  8033f8:	5210b03a 	or	r8,r10,r8
  8033fc:	202290fa 	slli	r17,r4,3
  803400:	1081ffcc 	andi	r2,r2,2047
  803404:	4b12b03a 	or	r9,r9,r12
  803408:	300c90fa 	slli	r6,r6,3
  80340c:	91c07526 	beq	r18,r7,8035e4 <__adddf3+0x23c>
  803410:	8087c83a 	sub	r3,r16,r2
  803414:	00c0ab0e 	bge	zero,r3,8036c4 <__adddf3+0x31c>
  803418:	10002a1e 	bne	r2,zero,8034c4 <__adddf3+0x11c>
  80341c:	4984b03a 	or	r2,r9,r6
  803420:	1000961e 	bne	r2,zero,80367c <__adddf3+0x2d4>
  803424:	888001cc 	andi	r2,r17,7
  803428:	10000726 	beq	r2,zero,803448 <__adddf3+0xa0>
  80342c:	888003cc 	andi	r2,r17,15
  803430:	00c00104 	movi	r3,4
  803434:	10c00426 	beq	r2,r3,803448 <__adddf3+0xa0>
  803438:	88c7883a 	add	r3,r17,r3
  80343c:	1c63803a 	cmpltu	r17,r3,r17
  803440:	4451883a 	add	r8,r8,r17
  803444:	1823883a 	mov	r17,r3
  803448:	4080202c 	andhi	r2,r8,128
  80344c:	10005926 	beq	r2,zero,8035b4 <__adddf3+0x20c>
  803450:	84000044 	addi	r16,r16,1
  803454:	0081ffc4 	movi	r2,2047
  803458:	8080ba26 	beq	r16,r2,803744 <__adddf3+0x39c>
  80345c:	00bfe034 	movhi	r2,65408
  803460:	10bfffc4 	addi	r2,r2,-1
  803464:	4090703a 	and	r8,r8,r2
  803468:	4004977a 	slli	r2,r8,29
  80346c:	4010927a 	slli	r8,r8,9
  803470:	8822d0fa 	srli	r17,r17,3
  803474:	8401ffcc 	andi	r16,r16,2047
  803478:	4010d33a 	srli	r8,r8,12
  80347c:	9007883a 	mov	r3,r18
  803480:	1444b03a 	or	r2,r2,r17
  803484:	8401ffcc 	andi	r16,r16,2047
  803488:	8020953a 	slli	r16,r16,20
  80348c:	18c03fcc 	andi	r3,r3,255
  803490:	01000434 	movhi	r4,16
  803494:	213fffc4 	addi	r4,r4,-1
  803498:	180697fa 	slli	r3,r3,31
  80349c:	4110703a 	and	r8,r8,r4
  8034a0:	4410b03a 	or	r8,r8,r16
  8034a4:	40c6b03a 	or	r3,r8,r3
  8034a8:	dfc00417 	ldw	ra,16(sp)
  8034ac:	dcc00317 	ldw	r19,12(sp)
  8034b0:	dc800217 	ldw	r18,8(sp)
  8034b4:	dc400117 	ldw	r17,4(sp)
  8034b8:	dc000017 	ldw	r16,0(sp)
  8034bc:	dec00504 	addi	sp,sp,20
  8034c0:	f800283a 	ret
  8034c4:	0081ffc4 	movi	r2,2047
  8034c8:	80bfd626 	beq	r16,r2,803424 <__alt_data_end+0xff803424>
  8034cc:	4a402034 	orhi	r9,r9,128
  8034d0:	00800e04 	movi	r2,56
  8034d4:	10c09f16 	blt	r2,r3,803754 <__adddf3+0x3ac>
  8034d8:	008007c4 	movi	r2,31
  8034dc:	10c0c216 	blt	r2,r3,8037e8 <__adddf3+0x440>
  8034e0:	00800804 	movi	r2,32
  8034e4:	10c5c83a 	sub	r2,r2,r3
  8034e8:	488a983a 	sll	r5,r9,r2
  8034ec:	30c8d83a 	srl	r4,r6,r3
  8034f0:	3084983a 	sll	r2,r6,r2
  8034f4:	48c6d83a 	srl	r3,r9,r3
  8034f8:	290cb03a 	or	r6,r5,r4
  8034fc:	1004c03a 	cmpne	r2,r2,zero
  803500:	308cb03a 	or	r6,r6,r2
  803504:	898dc83a 	sub	r6,r17,r6
  803508:	89a3803a 	cmpltu	r17,r17,r6
  80350c:	40d1c83a 	sub	r8,r8,r3
  803510:	4451c83a 	sub	r8,r8,r17
  803514:	3023883a 	mov	r17,r6
  803518:	4080202c 	andhi	r2,r8,128
  80351c:	10002326 	beq	r2,zero,8035ac <__adddf3+0x204>
  803520:	04c02034 	movhi	r19,128
  803524:	9cffffc4 	addi	r19,r19,-1
  803528:	44e6703a 	and	r19,r8,r19
  80352c:	98007626 	beq	r19,zero,803708 <__adddf3+0x360>
  803530:	9809883a 	mov	r4,r19
  803534:	08047740 	call	804774 <__clzsi2>
  803538:	10fffe04 	addi	r3,r2,-8
  80353c:	010007c4 	movi	r4,31
  803540:	20c07716 	blt	r4,r3,803720 <__adddf3+0x378>
  803544:	00800804 	movi	r2,32
  803548:	10c5c83a 	sub	r2,r2,r3
  80354c:	8884d83a 	srl	r2,r17,r2
  803550:	98d0983a 	sll	r8,r19,r3
  803554:	88e2983a 	sll	r17,r17,r3
  803558:	1204b03a 	or	r2,r2,r8
  80355c:	1c007416 	blt	r3,r16,803730 <__adddf3+0x388>
  803560:	1c21c83a 	sub	r16,r3,r16
  803564:	82000044 	addi	r8,r16,1
  803568:	00c007c4 	movi	r3,31
  80356c:	1a009116 	blt	r3,r8,8037b4 <__adddf3+0x40c>
  803570:	00c00804 	movi	r3,32
  803574:	1a07c83a 	sub	r3,r3,r8
  803578:	8a08d83a 	srl	r4,r17,r8
  80357c:	88e2983a 	sll	r17,r17,r3
  803580:	10c6983a 	sll	r3,r2,r3
  803584:	1210d83a 	srl	r8,r2,r8
  803588:	8804c03a 	cmpne	r2,r17,zero
  80358c:	1906b03a 	or	r3,r3,r4
  803590:	18a2b03a 	or	r17,r3,r2
  803594:	0021883a 	mov	r16,zero
  803598:	003fa206 	br	803424 <__alt_data_end+0xff803424>
  80359c:	1890b03a 	or	r8,r3,r2
  8035a0:	40017d26 	beq	r8,zero,803b98 <__adddf3+0x7f0>
  8035a4:	1011883a 	mov	r8,r2
  8035a8:	1823883a 	mov	r17,r3
  8035ac:	888001cc 	andi	r2,r17,7
  8035b0:	103f9e1e 	bne	r2,zero,80342c <__alt_data_end+0xff80342c>
  8035b4:	4004977a 	slli	r2,r8,29
  8035b8:	8822d0fa 	srli	r17,r17,3
  8035bc:	4010d0fa 	srli	r8,r8,3
  8035c0:	9007883a 	mov	r3,r18
  8035c4:	1444b03a 	or	r2,r2,r17
  8035c8:	0101ffc4 	movi	r4,2047
  8035cc:	81002426 	beq	r16,r4,803660 <__adddf3+0x2b8>
  8035d0:	8120703a 	and	r16,r16,r4
  8035d4:	01000434 	movhi	r4,16
  8035d8:	213fffc4 	addi	r4,r4,-1
  8035dc:	4110703a 	and	r8,r8,r4
  8035e0:	003fa806 	br	803484 <__alt_data_end+0xff803484>
  8035e4:	8089c83a 	sub	r4,r16,r2
  8035e8:	01005e0e 	bge	zero,r4,803764 <__adddf3+0x3bc>
  8035ec:	10002b26 	beq	r2,zero,80369c <__adddf3+0x2f4>
  8035f0:	0081ffc4 	movi	r2,2047
  8035f4:	80bf8b26 	beq	r16,r2,803424 <__alt_data_end+0xff803424>
  8035f8:	4a402034 	orhi	r9,r9,128
  8035fc:	00800e04 	movi	r2,56
  803600:	1100a40e 	bge	r2,r4,803894 <__adddf3+0x4ec>
  803604:	498cb03a 	or	r6,r9,r6
  803608:	300ac03a 	cmpne	r5,r6,zero
  80360c:	0013883a 	mov	r9,zero
  803610:	2c4b883a 	add	r5,r5,r17
  803614:	2c63803a 	cmpltu	r17,r5,r17
  803618:	4a11883a 	add	r8,r9,r8
  80361c:	8a11883a 	add	r8,r17,r8
  803620:	2823883a 	mov	r17,r5
  803624:	4080202c 	andhi	r2,r8,128
  803628:	103fe026 	beq	r2,zero,8035ac <__alt_data_end+0xff8035ac>
  80362c:	84000044 	addi	r16,r16,1
  803630:	0081ffc4 	movi	r2,2047
  803634:	8080d226 	beq	r16,r2,803980 <__adddf3+0x5d8>
  803638:	00bfe034 	movhi	r2,65408
  80363c:	10bfffc4 	addi	r2,r2,-1
  803640:	4090703a 	and	r8,r8,r2
  803644:	880ad07a 	srli	r5,r17,1
  803648:	400897fa 	slli	r4,r8,31
  80364c:	88c0004c 	andi	r3,r17,1
  803650:	28e2b03a 	or	r17,r5,r3
  803654:	4010d07a 	srli	r8,r8,1
  803658:	2462b03a 	or	r17,r4,r17
  80365c:	003f7106 	br	803424 <__alt_data_end+0xff803424>
  803660:	4088b03a 	or	r4,r8,r2
  803664:	20014526 	beq	r4,zero,803b7c <__adddf3+0x7d4>
  803668:	01000434 	movhi	r4,16
  80366c:	42000234 	orhi	r8,r8,8
  803670:	213fffc4 	addi	r4,r4,-1
  803674:	4110703a 	and	r8,r8,r4
  803678:	003f8206 	br	803484 <__alt_data_end+0xff803484>
  80367c:	18ffffc4 	addi	r3,r3,-1
  803680:	1800491e 	bne	r3,zero,8037a8 <__adddf3+0x400>
  803684:	898bc83a 	sub	r5,r17,r6
  803688:	8963803a 	cmpltu	r17,r17,r5
  80368c:	4251c83a 	sub	r8,r8,r9
  803690:	4451c83a 	sub	r8,r8,r17
  803694:	2823883a 	mov	r17,r5
  803698:	003f9f06 	br	803518 <__alt_data_end+0xff803518>
  80369c:	4984b03a 	or	r2,r9,r6
  8036a0:	103f6026 	beq	r2,zero,803424 <__alt_data_end+0xff803424>
  8036a4:	213fffc4 	addi	r4,r4,-1
  8036a8:	2000931e 	bne	r4,zero,8038f8 <__adddf3+0x550>
  8036ac:	898d883a 	add	r6,r17,r6
  8036b0:	3463803a 	cmpltu	r17,r6,r17
  8036b4:	4251883a 	add	r8,r8,r9
  8036b8:	8a11883a 	add	r8,r17,r8
  8036bc:	3023883a 	mov	r17,r6
  8036c0:	003fd806 	br	803624 <__alt_data_end+0xff803624>
  8036c4:	1800541e 	bne	r3,zero,803818 <__adddf3+0x470>
  8036c8:	80800044 	addi	r2,r16,1
  8036cc:	1081ffcc 	andi	r2,r2,2047
  8036d0:	00c00044 	movi	r3,1
  8036d4:	1880a00e 	bge	r3,r2,803958 <__adddf3+0x5b0>
  8036d8:	8989c83a 	sub	r4,r17,r6
  8036dc:	8905803a 	cmpltu	r2,r17,r4
  8036e0:	4267c83a 	sub	r19,r8,r9
  8036e4:	98a7c83a 	sub	r19,r19,r2
  8036e8:	9880202c 	andhi	r2,r19,128
  8036ec:	10006326 	beq	r2,zero,80387c <__adddf3+0x4d4>
  8036f0:	3463c83a 	sub	r17,r6,r17
  8036f4:	4a07c83a 	sub	r3,r9,r8
  8036f8:	344d803a 	cmpltu	r6,r6,r17
  8036fc:	19a7c83a 	sub	r19,r3,r6
  803700:	3825883a 	mov	r18,r7
  803704:	983f8a1e 	bne	r19,zero,803530 <__alt_data_end+0xff803530>
  803708:	8809883a 	mov	r4,r17
  80370c:	08047740 	call	804774 <__clzsi2>
  803710:	10800804 	addi	r2,r2,32
  803714:	10fffe04 	addi	r3,r2,-8
  803718:	010007c4 	movi	r4,31
  80371c:	20ff890e 	bge	r4,r3,803544 <__alt_data_end+0xff803544>
  803720:	10bff604 	addi	r2,r2,-40
  803724:	8884983a 	sll	r2,r17,r2
  803728:	0023883a 	mov	r17,zero
  80372c:	1c3f8c0e 	bge	r3,r16,803560 <__alt_data_end+0xff803560>
  803730:	023fe034 	movhi	r8,65408
  803734:	423fffc4 	addi	r8,r8,-1
  803738:	80e1c83a 	sub	r16,r16,r3
  80373c:	1210703a 	and	r8,r2,r8
  803740:	003f3806 	br	803424 <__alt_data_end+0xff803424>
  803744:	9007883a 	mov	r3,r18
  803748:	0011883a 	mov	r8,zero
  80374c:	0005883a 	mov	r2,zero
  803750:	003f4c06 	br	803484 <__alt_data_end+0xff803484>
  803754:	498cb03a 	or	r6,r9,r6
  803758:	300cc03a 	cmpne	r6,r6,zero
  80375c:	0007883a 	mov	r3,zero
  803760:	003f6806 	br	803504 <__alt_data_end+0xff803504>
  803764:	20009c1e 	bne	r4,zero,8039d8 <__adddf3+0x630>
  803768:	80800044 	addi	r2,r16,1
  80376c:	1141ffcc 	andi	r5,r2,2047
  803770:	01000044 	movi	r4,1
  803774:	2140670e 	bge	r4,r5,803914 <__adddf3+0x56c>
  803778:	0101ffc4 	movi	r4,2047
  80377c:	11007f26 	beq	r2,r4,80397c <__adddf3+0x5d4>
  803780:	898d883a 	add	r6,r17,r6
  803784:	4247883a 	add	r3,r8,r9
  803788:	3451803a 	cmpltu	r8,r6,r17
  80378c:	40d1883a 	add	r8,r8,r3
  803790:	402297fa 	slli	r17,r8,31
  803794:	300cd07a 	srli	r6,r6,1
  803798:	4010d07a 	srli	r8,r8,1
  80379c:	1021883a 	mov	r16,r2
  8037a0:	89a2b03a 	or	r17,r17,r6
  8037a4:	003f1f06 	br	803424 <__alt_data_end+0xff803424>
  8037a8:	0081ffc4 	movi	r2,2047
  8037ac:	80bf481e 	bne	r16,r2,8034d0 <__alt_data_end+0xff8034d0>
  8037b0:	003f1c06 	br	803424 <__alt_data_end+0xff803424>
  8037b4:	843ff844 	addi	r16,r16,-31
  8037b8:	01000804 	movi	r4,32
  8037bc:	1406d83a 	srl	r3,r2,r16
  8037c0:	41005026 	beq	r8,r4,803904 <__adddf3+0x55c>
  8037c4:	01001004 	movi	r4,64
  8037c8:	2211c83a 	sub	r8,r4,r8
  8037cc:	1204983a 	sll	r2,r2,r8
  8037d0:	88a2b03a 	or	r17,r17,r2
  8037d4:	8822c03a 	cmpne	r17,r17,zero
  8037d8:	1c62b03a 	or	r17,r3,r17
  8037dc:	0011883a 	mov	r8,zero
  8037e0:	0021883a 	mov	r16,zero
  8037e4:	003f7106 	br	8035ac <__alt_data_end+0xff8035ac>
  8037e8:	193ff804 	addi	r4,r3,-32
  8037ec:	00800804 	movi	r2,32
  8037f0:	4908d83a 	srl	r4,r9,r4
  8037f4:	18804526 	beq	r3,r2,80390c <__adddf3+0x564>
  8037f8:	00801004 	movi	r2,64
  8037fc:	10c5c83a 	sub	r2,r2,r3
  803800:	4886983a 	sll	r3,r9,r2
  803804:	198cb03a 	or	r6,r3,r6
  803808:	300cc03a 	cmpne	r6,r6,zero
  80380c:	218cb03a 	or	r6,r4,r6
  803810:	0007883a 	mov	r3,zero
  803814:	003f3b06 	br	803504 <__alt_data_end+0xff803504>
  803818:	80002a26 	beq	r16,zero,8038c4 <__adddf3+0x51c>
  80381c:	0101ffc4 	movi	r4,2047
  803820:	11006826 	beq	r2,r4,8039c4 <__adddf3+0x61c>
  803824:	00c7c83a 	sub	r3,zero,r3
  803828:	42002034 	orhi	r8,r8,128
  80382c:	01000e04 	movi	r4,56
  803830:	20c07c16 	blt	r4,r3,803a24 <__adddf3+0x67c>
  803834:	010007c4 	movi	r4,31
  803838:	20c0da16 	blt	r4,r3,803ba4 <__adddf3+0x7fc>
  80383c:	01000804 	movi	r4,32
  803840:	20c9c83a 	sub	r4,r4,r3
  803844:	4114983a 	sll	r10,r8,r4
  803848:	88cad83a 	srl	r5,r17,r3
  80384c:	8908983a 	sll	r4,r17,r4
  803850:	40c6d83a 	srl	r3,r8,r3
  803854:	5162b03a 	or	r17,r10,r5
  803858:	2008c03a 	cmpne	r4,r4,zero
  80385c:	8922b03a 	or	r17,r17,r4
  803860:	3463c83a 	sub	r17,r6,r17
  803864:	48c7c83a 	sub	r3,r9,r3
  803868:	344d803a 	cmpltu	r6,r6,r17
  80386c:	1991c83a 	sub	r8,r3,r6
  803870:	1021883a 	mov	r16,r2
  803874:	3825883a 	mov	r18,r7
  803878:	003f2706 	br	803518 <__alt_data_end+0xff803518>
  80387c:	24d0b03a 	or	r8,r4,r19
  803880:	40001b1e 	bne	r8,zero,8038f0 <__adddf3+0x548>
  803884:	0005883a 	mov	r2,zero
  803888:	0007883a 	mov	r3,zero
  80388c:	0021883a 	mov	r16,zero
  803890:	003f4d06 	br	8035c8 <__alt_data_end+0xff8035c8>
  803894:	008007c4 	movi	r2,31
  803898:	11003c16 	blt	r2,r4,80398c <__adddf3+0x5e4>
  80389c:	00800804 	movi	r2,32
  8038a0:	1105c83a 	sub	r2,r2,r4
  8038a4:	488e983a 	sll	r7,r9,r2
  8038a8:	310ad83a 	srl	r5,r6,r4
  8038ac:	3084983a 	sll	r2,r6,r2
  8038b0:	4912d83a 	srl	r9,r9,r4
  8038b4:	394ab03a 	or	r5,r7,r5
  8038b8:	1004c03a 	cmpne	r2,r2,zero
  8038bc:	288ab03a 	or	r5,r5,r2
  8038c0:	003f5306 	br	803610 <__alt_data_end+0xff803610>
  8038c4:	4448b03a 	or	r4,r8,r17
  8038c8:	20003e26 	beq	r4,zero,8039c4 <__adddf3+0x61c>
  8038cc:	00c6303a 	nor	r3,zero,r3
  8038d0:	18003a1e 	bne	r3,zero,8039bc <__adddf3+0x614>
  8038d4:	3463c83a 	sub	r17,r6,r17
  8038d8:	4a07c83a 	sub	r3,r9,r8
  8038dc:	344d803a 	cmpltu	r6,r6,r17
  8038e0:	1991c83a 	sub	r8,r3,r6
  8038e4:	1021883a 	mov	r16,r2
  8038e8:	3825883a 	mov	r18,r7
  8038ec:	003f0a06 	br	803518 <__alt_data_end+0xff803518>
  8038f0:	2023883a 	mov	r17,r4
  8038f4:	003f0d06 	br	80352c <__alt_data_end+0xff80352c>
  8038f8:	0081ffc4 	movi	r2,2047
  8038fc:	80bf3f1e 	bne	r16,r2,8035fc <__alt_data_end+0xff8035fc>
  803900:	003ec806 	br	803424 <__alt_data_end+0xff803424>
  803904:	0005883a 	mov	r2,zero
  803908:	003fb106 	br	8037d0 <__alt_data_end+0xff8037d0>
  80390c:	0007883a 	mov	r3,zero
  803910:	003fbc06 	br	803804 <__alt_data_end+0xff803804>
  803914:	4444b03a 	or	r2,r8,r17
  803918:	8000871e 	bne	r16,zero,803b38 <__adddf3+0x790>
  80391c:	1000ba26 	beq	r2,zero,803c08 <__adddf3+0x860>
  803920:	4984b03a 	or	r2,r9,r6
  803924:	103ebf26 	beq	r2,zero,803424 <__alt_data_end+0xff803424>
  803928:	8985883a 	add	r2,r17,r6
  80392c:	4247883a 	add	r3,r8,r9
  803930:	1451803a 	cmpltu	r8,r2,r17
  803934:	40d1883a 	add	r8,r8,r3
  803938:	40c0202c 	andhi	r3,r8,128
  80393c:	1023883a 	mov	r17,r2
  803940:	183f1a26 	beq	r3,zero,8035ac <__alt_data_end+0xff8035ac>
  803944:	00bfe034 	movhi	r2,65408
  803948:	10bfffc4 	addi	r2,r2,-1
  80394c:	2021883a 	mov	r16,r4
  803950:	4090703a 	and	r8,r8,r2
  803954:	003eb306 	br	803424 <__alt_data_end+0xff803424>
  803958:	4444b03a 	or	r2,r8,r17
  80395c:	8000291e 	bne	r16,zero,803a04 <__adddf3+0x65c>
  803960:	10004b1e 	bne	r2,zero,803a90 <__adddf3+0x6e8>
  803964:	4990b03a 	or	r8,r9,r6
  803968:	40008b26 	beq	r8,zero,803b98 <__adddf3+0x7f0>
  80396c:	4811883a 	mov	r8,r9
  803970:	3023883a 	mov	r17,r6
  803974:	3825883a 	mov	r18,r7
  803978:	003eaa06 	br	803424 <__alt_data_end+0xff803424>
  80397c:	1021883a 	mov	r16,r2
  803980:	0011883a 	mov	r8,zero
  803984:	0005883a 	mov	r2,zero
  803988:	003f0f06 	br	8035c8 <__alt_data_end+0xff8035c8>
  80398c:	217ff804 	addi	r5,r4,-32
  803990:	00800804 	movi	r2,32
  803994:	494ad83a 	srl	r5,r9,r5
  803998:	20807d26 	beq	r4,r2,803b90 <__adddf3+0x7e8>
  80399c:	00801004 	movi	r2,64
  8039a0:	1109c83a 	sub	r4,r2,r4
  8039a4:	4912983a 	sll	r9,r9,r4
  8039a8:	498cb03a 	or	r6,r9,r6
  8039ac:	300cc03a 	cmpne	r6,r6,zero
  8039b0:	298ab03a 	or	r5,r5,r6
  8039b4:	0013883a 	mov	r9,zero
  8039b8:	003f1506 	br	803610 <__alt_data_end+0xff803610>
  8039bc:	0101ffc4 	movi	r4,2047
  8039c0:	113f9a1e 	bne	r2,r4,80382c <__alt_data_end+0xff80382c>
  8039c4:	4811883a 	mov	r8,r9
  8039c8:	3023883a 	mov	r17,r6
  8039cc:	1021883a 	mov	r16,r2
  8039d0:	3825883a 	mov	r18,r7
  8039d4:	003e9306 	br	803424 <__alt_data_end+0xff803424>
  8039d8:	8000161e 	bne	r16,zero,803a34 <__adddf3+0x68c>
  8039dc:	444ab03a 	or	r5,r8,r17
  8039e0:	28005126 	beq	r5,zero,803b28 <__adddf3+0x780>
  8039e4:	0108303a 	nor	r4,zero,r4
  8039e8:	20004d1e 	bne	r4,zero,803b20 <__adddf3+0x778>
  8039ec:	89a3883a 	add	r17,r17,r6
  8039f0:	4253883a 	add	r9,r8,r9
  8039f4:	898d803a 	cmpltu	r6,r17,r6
  8039f8:	3251883a 	add	r8,r6,r9
  8039fc:	1021883a 	mov	r16,r2
  803a00:	003f0806 	br	803624 <__alt_data_end+0xff803624>
  803a04:	1000301e 	bne	r2,zero,803ac8 <__adddf3+0x720>
  803a08:	4984b03a 	or	r2,r9,r6
  803a0c:	10007126 	beq	r2,zero,803bd4 <__adddf3+0x82c>
  803a10:	4811883a 	mov	r8,r9
  803a14:	3023883a 	mov	r17,r6
  803a18:	3825883a 	mov	r18,r7
  803a1c:	0401ffc4 	movi	r16,2047
  803a20:	003e8006 	br	803424 <__alt_data_end+0xff803424>
  803a24:	4462b03a 	or	r17,r8,r17
  803a28:	8822c03a 	cmpne	r17,r17,zero
  803a2c:	0007883a 	mov	r3,zero
  803a30:	003f8b06 	br	803860 <__alt_data_end+0xff803860>
  803a34:	0141ffc4 	movi	r5,2047
  803a38:	11403b26 	beq	r2,r5,803b28 <__adddf3+0x780>
  803a3c:	0109c83a 	sub	r4,zero,r4
  803a40:	42002034 	orhi	r8,r8,128
  803a44:	01400e04 	movi	r5,56
  803a48:	29006716 	blt	r5,r4,803be8 <__adddf3+0x840>
  803a4c:	014007c4 	movi	r5,31
  803a50:	29007016 	blt	r5,r4,803c14 <__adddf3+0x86c>
  803a54:	01400804 	movi	r5,32
  803a58:	290bc83a 	sub	r5,r5,r4
  803a5c:	4154983a 	sll	r10,r8,r5
  803a60:	890ed83a 	srl	r7,r17,r4
  803a64:	894a983a 	sll	r5,r17,r5
  803a68:	4108d83a 	srl	r4,r8,r4
  803a6c:	51e2b03a 	or	r17,r10,r7
  803a70:	280ac03a 	cmpne	r5,r5,zero
  803a74:	8962b03a 	or	r17,r17,r5
  803a78:	89a3883a 	add	r17,r17,r6
  803a7c:	2253883a 	add	r9,r4,r9
  803a80:	898d803a 	cmpltu	r6,r17,r6
  803a84:	3251883a 	add	r8,r6,r9
  803a88:	1021883a 	mov	r16,r2
  803a8c:	003ee506 	br	803624 <__alt_data_end+0xff803624>
  803a90:	4984b03a 	or	r2,r9,r6
  803a94:	103e6326 	beq	r2,zero,803424 <__alt_data_end+0xff803424>
  803a98:	8987c83a 	sub	r3,r17,r6
  803a9c:	88c9803a 	cmpltu	r4,r17,r3
  803aa0:	4245c83a 	sub	r2,r8,r9
  803aa4:	1105c83a 	sub	r2,r2,r4
  803aa8:	1100202c 	andhi	r4,r2,128
  803aac:	203ebb26 	beq	r4,zero,80359c <__alt_data_end+0xff80359c>
  803ab0:	3463c83a 	sub	r17,r6,r17
  803ab4:	4a07c83a 	sub	r3,r9,r8
  803ab8:	344d803a 	cmpltu	r6,r6,r17
  803abc:	1991c83a 	sub	r8,r3,r6
  803ac0:	3825883a 	mov	r18,r7
  803ac4:	003e5706 	br	803424 <__alt_data_end+0xff803424>
  803ac8:	4984b03a 	or	r2,r9,r6
  803acc:	10002e26 	beq	r2,zero,803b88 <__adddf3+0x7e0>
  803ad0:	4004d0fa 	srli	r2,r8,3
  803ad4:	8822d0fa 	srli	r17,r17,3
  803ad8:	4010977a 	slli	r8,r8,29
  803adc:	10c0022c 	andhi	r3,r2,8
  803ae0:	4462b03a 	or	r17,r8,r17
  803ae4:	18000826 	beq	r3,zero,803b08 <__adddf3+0x760>
  803ae8:	4808d0fa 	srli	r4,r9,3
  803aec:	20c0022c 	andhi	r3,r4,8
  803af0:	1800051e 	bne	r3,zero,803b08 <__adddf3+0x760>
  803af4:	300cd0fa 	srli	r6,r6,3
  803af8:	4806977a 	slli	r3,r9,29
  803afc:	2005883a 	mov	r2,r4
  803b00:	3825883a 	mov	r18,r7
  803b04:	19a2b03a 	or	r17,r3,r6
  803b08:	8810d77a 	srli	r8,r17,29
  803b0c:	100490fa 	slli	r2,r2,3
  803b10:	882290fa 	slli	r17,r17,3
  803b14:	0401ffc4 	movi	r16,2047
  803b18:	4090b03a 	or	r8,r8,r2
  803b1c:	003e4106 	br	803424 <__alt_data_end+0xff803424>
  803b20:	0141ffc4 	movi	r5,2047
  803b24:	117fc71e 	bne	r2,r5,803a44 <__alt_data_end+0xff803a44>
  803b28:	4811883a 	mov	r8,r9
  803b2c:	3023883a 	mov	r17,r6
  803b30:	1021883a 	mov	r16,r2
  803b34:	003e3b06 	br	803424 <__alt_data_end+0xff803424>
  803b38:	10002f26 	beq	r2,zero,803bf8 <__adddf3+0x850>
  803b3c:	4984b03a 	or	r2,r9,r6
  803b40:	10001126 	beq	r2,zero,803b88 <__adddf3+0x7e0>
  803b44:	4004d0fa 	srli	r2,r8,3
  803b48:	8822d0fa 	srli	r17,r17,3
  803b4c:	4010977a 	slli	r8,r8,29
  803b50:	10c0022c 	andhi	r3,r2,8
  803b54:	4462b03a 	or	r17,r8,r17
  803b58:	183feb26 	beq	r3,zero,803b08 <__alt_data_end+0xff803b08>
  803b5c:	4808d0fa 	srli	r4,r9,3
  803b60:	20c0022c 	andhi	r3,r4,8
  803b64:	183fe81e 	bne	r3,zero,803b08 <__alt_data_end+0xff803b08>
  803b68:	300cd0fa 	srli	r6,r6,3
  803b6c:	4806977a 	slli	r3,r9,29
  803b70:	2005883a 	mov	r2,r4
  803b74:	19a2b03a 	or	r17,r3,r6
  803b78:	003fe306 	br	803b08 <__alt_data_end+0xff803b08>
  803b7c:	0011883a 	mov	r8,zero
  803b80:	0005883a 	mov	r2,zero
  803b84:	003e3f06 	br	803484 <__alt_data_end+0xff803484>
  803b88:	0401ffc4 	movi	r16,2047
  803b8c:	003e2506 	br	803424 <__alt_data_end+0xff803424>
  803b90:	0013883a 	mov	r9,zero
  803b94:	003f8406 	br	8039a8 <__alt_data_end+0xff8039a8>
  803b98:	0005883a 	mov	r2,zero
  803b9c:	0007883a 	mov	r3,zero
  803ba0:	003e8906 	br	8035c8 <__alt_data_end+0xff8035c8>
  803ba4:	197ff804 	addi	r5,r3,-32
  803ba8:	01000804 	movi	r4,32
  803bac:	414ad83a 	srl	r5,r8,r5
  803bb0:	19002426 	beq	r3,r4,803c44 <__adddf3+0x89c>
  803bb4:	01001004 	movi	r4,64
  803bb8:	20c7c83a 	sub	r3,r4,r3
  803bbc:	40c6983a 	sll	r3,r8,r3
  803bc0:	1c46b03a 	or	r3,r3,r17
  803bc4:	1806c03a 	cmpne	r3,r3,zero
  803bc8:	28e2b03a 	or	r17,r5,r3
  803bcc:	0007883a 	mov	r3,zero
  803bd0:	003f2306 	br	803860 <__alt_data_end+0xff803860>
  803bd4:	0007883a 	mov	r3,zero
  803bd8:	5811883a 	mov	r8,r11
  803bdc:	00bfffc4 	movi	r2,-1
  803be0:	0401ffc4 	movi	r16,2047
  803be4:	003e7806 	br	8035c8 <__alt_data_end+0xff8035c8>
  803be8:	4462b03a 	or	r17,r8,r17
  803bec:	8822c03a 	cmpne	r17,r17,zero
  803bf0:	0009883a 	mov	r4,zero
  803bf4:	003fa006 	br	803a78 <__alt_data_end+0xff803a78>
  803bf8:	4811883a 	mov	r8,r9
  803bfc:	3023883a 	mov	r17,r6
  803c00:	0401ffc4 	movi	r16,2047
  803c04:	003e0706 	br	803424 <__alt_data_end+0xff803424>
  803c08:	4811883a 	mov	r8,r9
  803c0c:	3023883a 	mov	r17,r6
  803c10:	003e0406 	br	803424 <__alt_data_end+0xff803424>
  803c14:	21fff804 	addi	r7,r4,-32
  803c18:	01400804 	movi	r5,32
  803c1c:	41ced83a 	srl	r7,r8,r7
  803c20:	21400a26 	beq	r4,r5,803c4c <__adddf3+0x8a4>
  803c24:	01401004 	movi	r5,64
  803c28:	2909c83a 	sub	r4,r5,r4
  803c2c:	4108983a 	sll	r4,r8,r4
  803c30:	2448b03a 	or	r4,r4,r17
  803c34:	2008c03a 	cmpne	r4,r4,zero
  803c38:	3922b03a 	or	r17,r7,r4
  803c3c:	0009883a 	mov	r4,zero
  803c40:	003f8d06 	br	803a78 <__alt_data_end+0xff803a78>
  803c44:	0007883a 	mov	r3,zero
  803c48:	003fdd06 	br	803bc0 <__alt_data_end+0xff803bc0>
  803c4c:	0009883a 	mov	r4,zero
  803c50:	003ff706 	br	803c30 <__alt_data_end+0xff803c30>

00803c54 <__muldf3>:
  803c54:	deffee04 	addi	sp,sp,-72
  803c58:	dd000c15 	stw	r20,48(sp)
  803c5c:	2828d53a 	srli	r20,r5,20
  803c60:	ddc00f15 	stw	r23,60(sp)
  803c64:	282ed7fa 	srli	r23,r5,31
  803c68:	dc000815 	stw	r16,32(sp)
  803c6c:	04000434 	movhi	r16,16
  803c70:	dcc00b15 	stw	r19,44(sp)
  803c74:	843fffc4 	addi	r16,r16,-1
  803c78:	dfc01115 	stw	ra,68(sp)
  803c7c:	df001015 	stw	fp,64(sp)
  803c80:	dd800e15 	stw	r22,56(sp)
  803c84:	dd400d15 	stw	r21,52(sp)
  803c88:	dc800a15 	stw	r18,40(sp)
  803c8c:	dc400915 	stw	r17,36(sp)
  803c90:	a501ffcc 	andi	r20,r20,2047
  803c94:	2c20703a 	and	r16,r5,r16
  803c98:	b827883a 	mov	r19,r23
  803c9c:	ba403fcc 	andi	r9,r23,255
  803ca0:	a0006026 	beq	r20,zero,803e24 <__muldf3+0x1d0>
  803ca4:	0081ffc4 	movi	r2,2047
  803ca8:	202d883a 	mov	r22,r4
  803cac:	a0803626 	beq	r20,r2,803d88 <__muldf3+0x134>
  803cb0:	84000434 	orhi	r16,r16,16
  803cb4:	200ad77a 	srli	r5,r4,29
  803cb8:	800690fa 	slli	r3,r16,3
  803cbc:	202c90fa 	slli	r22,r4,3
  803cc0:	a53f0044 	addi	r20,r20,-1023
  803cc4:	28e0b03a 	or	r16,r5,r3
  803cc8:	002b883a 	mov	r21,zero
  803ccc:	000b883a 	mov	r5,zero
  803cd0:	3806d53a 	srli	r3,r7,20
  803cd4:	3838d7fa 	srli	fp,r7,31
  803cd8:	04400434 	movhi	r17,16
  803cdc:	8c7fffc4 	addi	r17,r17,-1
  803ce0:	18c1ffcc 	andi	r3,r3,2047
  803ce4:	3025883a 	mov	r18,r6
  803ce8:	3c62703a 	and	r17,r7,r17
  803cec:	e2803fcc 	andi	r10,fp,255
  803cf0:	18006d26 	beq	r3,zero,803ea8 <__muldf3+0x254>
  803cf4:	0081ffc4 	movi	r2,2047
  803cf8:	18806526 	beq	r3,r2,803e90 <__muldf3+0x23c>
  803cfc:	8c400434 	orhi	r17,r17,16
  803d00:	300ed77a 	srli	r7,r6,29
  803d04:	880890fa 	slli	r4,r17,3
  803d08:	302490fa 	slli	r18,r6,3
  803d0c:	18ff0044 	addi	r3,r3,-1023
  803d10:	3922b03a 	or	r17,r7,r4
  803d14:	000f883a 	mov	r7,zero
  803d18:	a0c7883a 	add	r3,r20,r3
  803d1c:	3d48b03a 	or	r4,r7,r21
  803d20:	008003c4 	movi	r2,15
  803d24:	e5ccf03a 	xor	r6,fp,r23
  803d28:	1a000044 	addi	r8,r3,1
  803d2c:	11009b36 	bltu	r2,r4,803f9c <__muldf3+0x348>
  803d30:	200890ba 	slli	r4,r4,2
  803d34:	00802034 	movhi	r2,128
  803d38:	108f5204 	addi	r2,r2,15688
  803d3c:	2089883a 	add	r4,r4,r2
  803d40:	20800017 	ldw	r2,0(r4)
  803d44:	1000683a 	jmp	r2
  803d48:	00803f9c 	xori	r2,zero,254
  803d4c:	00803da8 	cmpgeui	r2,zero,246
  803d50:	00803da8 	cmpgeui	r2,zero,246
  803d54:	00803da4 	muli	r2,zero,246
  803d58:	00803f78 	rdprs	r2,zero,253
  803d5c:	00803f78 	rdprs	r2,zero,253
  803d60:	00803f60 	cmpeqi	r2,zero,253
  803d64:	00803da4 	muli	r2,zero,246
  803d68:	00803f78 	rdprs	r2,zero,253
  803d6c:	00803f60 	cmpeqi	r2,zero,253
  803d70:	00803f78 	rdprs	r2,zero,253
  803d74:	00803da4 	muli	r2,zero,246
  803d78:	00803f88 	cmpgei	r2,zero,254
  803d7c:	00803f88 	cmpgei	r2,zero,254
  803d80:	00803f88 	cmpgei	r2,zero,254
  803d84:	008042e4 	muli	r2,zero,267
  803d88:	2404b03a 	or	r2,r4,r16
  803d8c:	1000711e 	bne	r2,zero,803f54 <__muldf3+0x300>
  803d90:	05400204 	movi	r21,8
  803d94:	0021883a 	mov	r16,zero
  803d98:	002d883a 	mov	r22,zero
  803d9c:	01400084 	movi	r5,2
  803da0:	003fcb06 	br	803cd0 <__alt_data_end+0xff803cd0>
  803da4:	500d883a 	mov	r6,r10
  803da8:	00800084 	movi	r2,2
  803dac:	38805926 	beq	r7,r2,803f14 <__muldf3+0x2c0>
  803db0:	008000c4 	movi	r2,3
  803db4:	3881ba26 	beq	r7,r2,8044a0 <__muldf3+0x84c>
  803db8:	00800044 	movi	r2,1
  803dbc:	3881951e 	bne	r7,r2,804414 <__muldf3+0x7c0>
  803dc0:	3027883a 	mov	r19,r6
  803dc4:	0005883a 	mov	r2,zero
  803dc8:	0021883a 	mov	r16,zero
  803dcc:	002d883a 	mov	r22,zero
  803dd0:	1004953a 	slli	r2,r2,20
  803dd4:	98c03fcc 	andi	r3,r19,255
  803dd8:	04400434 	movhi	r17,16
  803ddc:	8c7fffc4 	addi	r17,r17,-1
  803de0:	180697fa 	slli	r3,r3,31
  803de4:	8460703a 	and	r16,r16,r17
  803de8:	80a0b03a 	or	r16,r16,r2
  803dec:	80c6b03a 	or	r3,r16,r3
  803df0:	b005883a 	mov	r2,r22
  803df4:	dfc01117 	ldw	ra,68(sp)
  803df8:	df001017 	ldw	fp,64(sp)
  803dfc:	ddc00f17 	ldw	r23,60(sp)
  803e00:	dd800e17 	ldw	r22,56(sp)
  803e04:	dd400d17 	ldw	r21,52(sp)
  803e08:	dd000c17 	ldw	r20,48(sp)
  803e0c:	dcc00b17 	ldw	r19,44(sp)
  803e10:	dc800a17 	ldw	r18,40(sp)
  803e14:	dc400917 	ldw	r17,36(sp)
  803e18:	dc000817 	ldw	r16,32(sp)
  803e1c:	dec01204 	addi	sp,sp,72
  803e20:	f800283a 	ret
  803e24:	2404b03a 	or	r2,r4,r16
  803e28:	202b883a 	mov	r21,r4
  803e2c:	10004426 	beq	r2,zero,803f40 <__muldf3+0x2ec>
  803e30:	80015026 	beq	r16,zero,804374 <__muldf3+0x720>
  803e34:	8009883a 	mov	r4,r16
  803e38:	d9800715 	stw	r6,28(sp)
  803e3c:	d9c00215 	stw	r7,8(sp)
  803e40:	da400415 	stw	r9,16(sp)
  803e44:	08047740 	call	804774 <__clzsi2>
  803e48:	d9800717 	ldw	r6,28(sp)
  803e4c:	d9c00217 	ldw	r7,8(sp)
  803e50:	da400417 	ldw	r9,16(sp)
  803e54:	10fffd44 	addi	r3,r2,-11
  803e58:	01000704 	movi	r4,28
  803e5c:	20c14116 	blt	r4,r3,804364 <__muldf3+0x710>
  803e60:	01000744 	movi	r4,29
  803e64:	15bffe04 	addi	r22,r2,-8
  803e68:	20c9c83a 	sub	r4,r4,r3
  803e6c:	85a0983a 	sll	r16,r16,r22
  803e70:	a908d83a 	srl	r4,r21,r4
  803e74:	adac983a 	sll	r22,r21,r22
  803e78:	2420b03a 	or	r16,r4,r16
  803e7c:	053f0084 	movi	r20,-1022
  803e80:	a0e9c83a 	sub	r20,r20,r3
  803e84:	002b883a 	mov	r21,zero
  803e88:	000b883a 	mov	r5,zero
  803e8c:	003f9006 	br	803cd0 <__alt_data_end+0xff803cd0>
  803e90:	3444b03a 	or	r2,r6,r17
  803e94:	1000281e 	bne	r2,zero,803f38 <__muldf3+0x2e4>
  803e98:	0023883a 	mov	r17,zero
  803e9c:	0025883a 	mov	r18,zero
  803ea0:	01c00084 	movi	r7,2
  803ea4:	003f9c06 	br	803d18 <__alt_data_end+0xff803d18>
  803ea8:	3444b03a 	or	r2,r6,r17
  803eac:	10001e26 	beq	r2,zero,803f28 <__muldf3+0x2d4>
  803eb0:	88012026 	beq	r17,zero,804334 <__muldf3+0x6e0>
  803eb4:	8809883a 	mov	r4,r17
  803eb8:	d9400215 	stw	r5,8(sp)
  803ebc:	d9800715 	stw	r6,28(sp)
  803ec0:	da400415 	stw	r9,16(sp)
  803ec4:	da800315 	stw	r10,12(sp)
  803ec8:	08047740 	call	804774 <__clzsi2>
  803ecc:	d9400217 	ldw	r5,8(sp)
  803ed0:	d9800717 	ldw	r6,28(sp)
  803ed4:	da400417 	ldw	r9,16(sp)
  803ed8:	da800317 	ldw	r10,12(sp)
  803edc:	113ffd44 	addi	r4,r2,-11
  803ee0:	00c00704 	movi	r3,28
  803ee4:	19010f16 	blt	r3,r4,804324 <__muldf3+0x6d0>
  803ee8:	00c00744 	movi	r3,29
  803eec:	14bffe04 	addi	r18,r2,-8
  803ef0:	1907c83a 	sub	r3,r3,r4
  803ef4:	8ca2983a 	sll	r17,r17,r18
  803ef8:	30c6d83a 	srl	r3,r6,r3
  803efc:	34a4983a 	sll	r18,r6,r18
  803f00:	1c62b03a 	or	r17,r3,r17
  803f04:	00ff0084 	movi	r3,-1022
  803f08:	1907c83a 	sub	r3,r3,r4
  803f0c:	000f883a 	mov	r7,zero
  803f10:	003f8106 	br	803d18 <__alt_data_end+0xff803d18>
  803f14:	3027883a 	mov	r19,r6
  803f18:	0081ffc4 	movi	r2,2047
  803f1c:	0021883a 	mov	r16,zero
  803f20:	002d883a 	mov	r22,zero
  803f24:	003faa06 	br	803dd0 <__alt_data_end+0xff803dd0>
  803f28:	0023883a 	mov	r17,zero
  803f2c:	0025883a 	mov	r18,zero
  803f30:	01c00044 	movi	r7,1
  803f34:	003f7806 	br	803d18 <__alt_data_end+0xff803d18>
  803f38:	01c000c4 	movi	r7,3
  803f3c:	003f7606 	br	803d18 <__alt_data_end+0xff803d18>
  803f40:	05400104 	movi	r21,4
  803f44:	0021883a 	mov	r16,zero
  803f48:	002d883a 	mov	r22,zero
  803f4c:	01400044 	movi	r5,1
  803f50:	003f5f06 	br	803cd0 <__alt_data_end+0xff803cd0>
  803f54:	05400304 	movi	r21,12
  803f58:	014000c4 	movi	r5,3
  803f5c:	003f5c06 	br	803cd0 <__alt_data_end+0xff803cd0>
  803f60:	04000434 	movhi	r16,16
  803f64:	0027883a 	mov	r19,zero
  803f68:	843fffc4 	addi	r16,r16,-1
  803f6c:	05bfffc4 	movi	r22,-1
  803f70:	0081ffc4 	movi	r2,2047
  803f74:	003f9606 	br	803dd0 <__alt_data_end+0xff803dd0>
  803f78:	8023883a 	mov	r17,r16
  803f7c:	b025883a 	mov	r18,r22
  803f80:	280f883a 	mov	r7,r5
  803f84:	003f8806 	br	803da8 <__alt_data_end+0xff803da8>
  803f88:	8023883a 	mov	r17,r16
  803f8c:	b025883a 	mov	r18,r22
  803f90:	480d883a 	mov	r6,r9
  803f94:	280f883a 	mov	r7,r5
  803f98:	003f8306 	br	803da8 <__alt_data_end+0xff803da8>
  803f9c:	b028d43a 	srli	r20,r22,16
  803fa0:	902ed43a 	srli	r23,r18,16
  803fa4:	b5bfffcc 	andi	r22,r22,65535
  803fa8:	94bfffcc 	andi	r18,r18,65535
  803fac:	b00b883a 	mov	r5,r22
  803fb0:	9009883a 	mov	r4,r18
  803fb4:	d8c00515 	stw	r3,20(sp)
  803fb8:	d9800715 	stw	r6,28(sp)
  803fbc:	da000615 	stw	r8,24(sp)
  803fc0:	08047d80 	call	8047d8 <__mulsi3>
  803fc4:	a00b883a 	mov	r5,r20
  803fc8:	9009883a 	mov	r4,r18
  803fcc:	1027883a 	mov	r19,r2
  803fd0:	08047d80 	call	8047d8 <__mulsi3>
  803fd4:	b80b883a 	mov	r5,r23
  803fd8:	a009883a 	mov	r4,r20
  803fdc:	102b883a 	mov	r21,r2
  803fe0:	08047d80 	call	8047d8 <__mulsi3>
  803fe4:	b809883a 	mov	r4,r23
  803fe8:	b00b883a 	mov	r5,r22
  803fec:	1039883a 	mov	fp,r2
  803ff0:	08047d80 	call	8047d8 <__mulsi3>
  803ff4:	9808d43a 	srli	r4,r19,16
  803ff8:	1545883a 	add	r2,r2,r21
  803ffc:	d8c00517 	ldw	r3,20(sp)
  804000:	2085883a 	add	r2,r4,r2
  804004:	d9800717 	ldw	r6,28(sp)
  804008:	da000617 	ldw	r8,24(sp)
  80400c:	1540022e 	bgeu	r2,r21,804018 <__muldf3+0x3c4>
  804010:	01000074 	movhi	r4,1
  804014:	e139883a 	add	fp,fp,r4
  804018:	100e943a 	slli	r7,r2,16
  80401c:	1004d43a 	srli	r2,r2,16
  804020:	882ad43a 	srli	r21,r17,16
  804024:	9cffffcc 	andi	r19,r19,65535
  804028:	8c7fffcc 	andi	r17,r17,65535
  80402c:	3ce7883a 	add	r19,r7,r19
  804030:	b00b883a 	mov	r5,r22
  804034:	8809883a 	mov	r4,r17
  804038:	d8c00515 	stw	r3,20(sp)
  80403c:	d9800715 	stw	r6,28(sp)
  804040:	da000615 	stw	r8,24(sp)
  804044:	dcc00115 	stw	r19,4(sp)
  804048:	d8800015 	stw	r2,0(sp)
  80404c:	08047d80 	call	8047d8 <__mulsi3>
  804050:	a00b883a 	mov	r5,r20
  804054:	8809883a 	mov	r4,r17
  804058:	d8800215 	stw	r2,8(sp)
  80405c:	08047d80 	call	8047d8 <__mulsi3>
  804060:	a009883a 	mov	r4,r20
  804064:	a80b883a 	mov	r5,r21
  804068:	1027883a 	mov	r19,r2
  80406c:	08047d80 	call	8047d8 <__mulsi3>
  804070:	a809883a 	mov	r4,r21
  804074:	b00b883a 	mov	r5,r22
  804078:	1029883a 	mov	r20,r2
  80407c:	08047d80 	call	8047d8 <__mulsi3>
  804080:	d9c00217 	ldw	r7,8(sp)
  804084:	14c5883a 	add	r2,r2,r19
  804088:	d8c00517 	ldw	r3,20(sp)
  80408c:	3808d43a 	srli	r4,r7,16
  804090:	d9800717 	ldw	r6,28(sp)
  804094:	da000617 	ldw	r8,24(sp)
  804098:	2085883a 	add	r2,r4,r2
  80409c:	14c0022e 	bgeu	r2,r19,8040a8 <__muldf3+0x454>
  8040a0:	01000074 	movhi	r4,1
  8040a4:	a129883a 	add	r20,r20,r4
  8040a8:	1012d43a 	srli	r9,r2,16
  8040ac:	1004943a 	slli	r2,r2,16
  8040b0:	802cd43a 	srli	r22,r16,16
  8040b4:	843fffcc 	andi	r16,r16,65535
  8040b8:	3cffffcc 	andi	r19,r7,65535
  8040bc:	9009883a 	mov	r4,r18
  8040c0:	800b883a 	mov	r5,r16
  8040c4:	4d29883a 	add	r20,r9,r20
  8040c8:	d8c00515 	stw	r3,20(sp)
  8040cc:	d9800715 	stw	r6,28(sp)
  8040d0:	da000615 	stw	r8,24(sp)
  8040d4:	14e7883a 	add	r19,r2,r19
  8040d8:	08047d80 	call	8047d8 <__mulsi3>
  8040dc:	9009883a 	mov	r4,r18
  8040e0:	b00b883a 	mov	r5,r22
  8040e4:	d8800315 	stw	r2,12(sp)
  8040e8:	08047d80 	call	8047d8 <__mulsi3>
  8040ec:	b809883a 	mov	r4,r23
  8040f0:	b00b883a 	mov	r5,r22
  8040f4:	d8800215 	stw	r2,8(sp)
  8040f8:	08047d80 	call	8047d8 <__mulsi3>
  8040fc:	b80b883a 	mov	r5,r23
  804100:	8009883a 	mov	r4,r16
  804104:	d8800415 	stw	r2,16(sp)
  804108:	08047d80 	call	8047d8 <__mulsi3>
  80410c:	da800317 	ldw	r10,12(sp)
  804110:	d9c00217 	ldw	r7,8(sp)
  804114:	d9000017 	ldw	r4,0(sp)
  804118:	502ed43a 	srli	r23,r10,16
  80411c:	11c5883a 	add	r2,r2,r7
  804120:	24e5883a 	add	r18,r4,r19
  804124:	b885883a 	add	r2,r23,r2
  804128:	d8c00517 	ldw	r3,20(sp)
  80412c:	d9800717 	ldw	r6,28(sp)
  804130:	da000617 	ldw	r8,24(sp)
  804134:	da400417 	ldw	r9,16(sp)
  804138:	11c0022e 	bgeu	r2,r7,804144 <__muldf3+0x4f0>
  80413c:	01000074 	movhi	r4,1
  804140:	4913883a 	add	r9,r9,r4
  804144:	100ed43a 	srli	r7,r2,16
  804148:	1004943a 	slli	r2,r2,16
  80414c:	55ffffcc 	andi	r23,r10,65535
  804150:	3a53883a 	add	r9,r7,r9
  804154:	8809883a 	mov	r4,r17
  804158:	800b883a 	mov	r5,r16
  80415c:	d8c00515 	stw	r3,20(sp)
  804160:	d9800715 	stw	r6,28(sp)
  804164:	da000615 	stw	r8,24(sp)
  804168:	da400415 	stw	r9,16(sp)
  80416c:	15ef883a 	add	r23,r2,r23
  804170:	08047d80 	call	8047d8 <__mulsi3>
  804174:	8809883a 	mov	r4,r17
  804178:	b00b883a 	mov	r5,r22
  80417c:	d8800215 	stw	r2,8(sp)
  804180:	08047d80 	call	8047d8 <__mulsi3>
  804184:	b00b883a 	mov	r5,r22
  804188:	a809883a 	mov	r4,r21
  80418c:	d8800315 	stw	r2,12(sp)
  804190:	08047d80 	call	8047d8 <__mulsi3>
  804194:	8009883a 	mov	r4,r16
  804198:	a80b883a 	mov	r5,r21
  80419c:	1023883a 	mov	r17,r2
  8041a0:	08047d80 	call	8047d8 <__mulsi3>
  8041a4:	d9c00217 	ldw	r7,8(sp)
  8041a8:	da800317 	ldw	r10,12(sp)
  8041ac:	d8c00517 	ldw	r3,20(sp)
  8041b0:	3808d43a 	srli	r4,r7,16
  8041b4:	1285883a 	add	r2,r2,r10
  8041b8:	d9800717 	ldw	r6,28(sp)
  8041bc:	2085883a 	add	r2,r4,r2
  8041c0:	da000617 	ldw	r8,24(sp)
  8041c4:	da400417 	ldw	r9,16(sp)
  8041c8:	1280022e 	bgeu	r2,r10,8041d4 <__muldf3+0x580>
  8041cc:	01000074 	movhi	r4,1
  8041d0:	8923883a 	add	r17,r17,r4
  8041d4:	1008943a 	slli	r4,r2,16
  8041d8:	39ffffcc 	andi	r7,r7,65535
  8041dc:	e4b9883a 	add	fp,fp,r18
  8041e0:	21cf883a 	add	r7,r4,r7
  8041e4:	e4e7803a 	cmpltu	r19,fp,r19
  8041e8:	3d0f883a 	add	r7,r7,r20
  8041ec:	bf39883a 	add	fp,r23,fp
  8041f0:	99c9883a 	add	r4,r19,r7
  8041f4:	e5ef803a 	cmpltu	r23,fp,r23
  8041f8:	490b883a 	add	r5,r9,r4
  8041fc:	1004d43a 	srli	r2,r2,16
  804200:	b965883a 	add	r18,r23,r5
  804204:	24c9803a 	cmpltu	r4,r4,r19
  804208:	3d29803a 	cmpltu	r20,r7,r20
  80420c:	a128b03a 	or	r20,r20,r4
  804210:	95ef803a 	cmpltu	r23,r18,r23
  804214:	2a53803a 	cmpltu	r9,r5,r9
  804218:	a0a9883a 	add	r20,r20,r2
  80421c:	4deeb03a 	or	r23,r9,r23
  804220:	a5ef883a 	add	r23,r20,r23
  804224:	bc63883a 	add	r17,r23,r17
  804228:	e004927a 	slli	r2,fp,9
  80422c:	d9000117 	ldw	r4,4(sp)
  804230:	882e927a 	slli	r23,r17,9
  804234:	9022d5fa 	srli	r17,r18,23
  804238:	e038d5fa 	srli	fp,fp,23
  80423c:	1104b03a 	or	r2,r2,r4
  804240:	9024927a 	slli	r18,r18,9
  804244:	1004c03a 	cmpne	r2,r2,zero
  804248:	bc62b03a 	or	r17,r23,r17
  80424c:	1738b03a 	or	fp,r2,fp
  804250:	8880402c 	andhi	r2,r17,256
  804254:	e4a4b03a 	or	r18,fp,r18
  804258:	10000726 	beq	r2,zero,804278 <__muldf3+0x624>
  80425c:	9006d07a 	srli	r3,r18,1
  804260:	880497fa 	slli	r2,r17,31
  804264:	9480004c 	andi	r18,r18,1
  804268:	8822d07a 	srli	r17,r17,1
  80426c:	1ca4b03a 	or	r18,r3,r18
  804270:	14a4b03a 	or	r18,r2,r18
  804274:	4007883a 	mov	r3,r8
  804278:	1880ffc4 	addi	r2,r3,1023
  80427c:	0080460e 	bge	zero,r2,804398 <__muldf3+0x744>
  804280:	910001cc 	andi	r4,r18,7
  804284:	20000726 	beq	r4,zero,8042a4 <__muldf3+0x650>
  804288:	910003cc 	andi	r4,r18,15
  80428c:	01400104 	movi	r5,4
  804290:	21400426 	beq	r4,r5,8042a4 <__muldf3+0x650>
  804294:	9149883a 	add	r4,r18,r5
  804298:	24a5803a 	cmpltu	r18,r4,r18
  80429c:	8ca3883a 	add	r17,r17,r18
  8042a0:	2025883a 	mov	r18,r4
  8042a4:	8900402c 	andhi	r4,r17,256
  8042a8:	20000426 	beq	r4,zero,8042bc <__muldf3+0x668>
  8042ac:	18810004 	addi	r2,r3,1024
  8042b0:	00ffc034 	movhi	r3,65280
  8042b4:	18ffffc4 	addi	r3,r3,-1
  8042b8:	88e2703a 	and	r17,r17,r3
  8042bc:	00c1ff84 	movi	r3,2046
  8042c0:	18bf1416 	blt	r3,r2,803f14 <__alt_data_end+0xff803f14>
  8042c4:	882c977a 	slli	r22,r17,29
  8042c8:	9024d0fa 	srli	r18,r18,3
  8042cc:	8822927a 	slli	r17,r17,9
  8042d0:	1081ffcc 	andi	r2,r2,2047
  8042d4:	b4acb03a 	or	r22,r22,r18
  8042d8:	8820d33a 	srli	r16,r17,12
  8042dc:	3027883a 	mov	r19,r6
  8042e0:	003ebb06 	br	803dd0 <__alt_data_end+0xff803dd0>
  8042e4:	8080022c 	andhi	r2,r16,8
  8042e8:	10000926 	beq	r2,zero,804310 <__muldf3+0x6bc>
  8042ec:	8880022c 	andhi	r2,r17,8
  8042f0:	1000071e 	bne	r2,zero,804310 <__muldf3+0x6bc>
  8042f4:	00800434 	movhi	r2,16
  8042f8:	8c000234 	orhi	r16,r17,8
  8042fc:	10bfffc4 	addi	r2,r2,-1
  804300:	e027883a 	mov	r19,fp
  804304:	80a0703a 	and	r16,r16,r2
  804308:	902d883a 	mov	r22,r18
  80430c:	003f1806 	br	803f70 <__alt_data_end+0xff803f70>
  804310:	00800434 	movhi	r2,16
  804314:	84000234 	orhi	r16,r16,8
  804318:	10bfffc4 	addi	r2,r2,-1
  80431c:	80a0703a 	and	r16,r16,r2
  804320:	003f1306 	br	803f70 <__alt_data_end+0xff803f70>
  804324:	147ff604 	addi	r17,r2,-40
  804328:	3462983a 	sll	r17,r6,r17
  80432c:	0025883a 	mov	r18,zero
  804330:	003ef406 	br	803f04 <__alt_data_end+0xff803f04>
  804334:	3009883a 	mov	r4,r6
  804338:	d9400215 	stw	r5,8(sp)
  80433c:	d9800715 	stw	r6,28(sp)
  804340:	da400415 	stw	r9,16(sp)
  804344:	da800315 	stw	r10,12(sp)
  804348:	08047740 	call	804774 <__clzsi2>
  80434c:	10800804 	addi	r2,r2,32
  804350:	da800317 	ldw	r10,12(sp)
  804354:	da400417 	ldw	r9,16(sp)
  804358:	d9800717 	ldw	r6,28(sp)
  80435c:	d9400217 	ldw	r5,8(sp)
  804360:	003ede06 	br	803edc <__alt_data_end+0xff803edc>
  804364:	143ff604 	addi	r16,r2,-40
  804368:	ac20983a 	sll	r16,r21,r16
  80436c:	002d883a 	mov	r22,zero
  804370:	003ec206 	br	803e7c <__alt_data_end+0xff803e7c>
  804374:	d9800715 	stw	r6,28(sp)
  804378:	d9c00215 	stw	r7,8(sp)
  80437c:	da400415 	stw	r9,16(sp)
  804380:	08047740 	call	804774 <__clzsi2>
  804384:	10800804 	addi	r2,r2,32
  804388:	da400417 	ldw	r9,16(sp)
  80438c:	d9c00217 	ldw	r7,8(sp)
  804390:	d9800717 	ldw	r6,28(sp)
  804394:	003eaf06 	br	803e54 <__alt_data_end+0xff803e54>
  804398:	00c00044 	movi	r3,1
  80439c:	1887c83a 	sub	r3,r3,r2
  8043a0:	01000e04 	movi	r4,56
  8043a4:	20fe8616 	blt	r4,r3,803dc0 <__alt_data_end+0xff803dc0>
  8043a8:	010007c4 	movi	r4,31
  8043ac:	20c01b16 	blt	r4,r3,80441c <__muldf3+0x7c8>
  8043b0:	00800804 	movi	r2,32
  8043b4:	10c5c83a 	sub	r2,r2,r3
  8043b8:	888a983a 	sll	r5,r17,r2
  8043bc:	90c8d83a 	srl	r4,r18,r3
  8043c0:	9084983a 	sll	r2,r18,r2
  8043c4:	88e2d83a 	srl	r17,r17,r3
  8043c8:	2906b03a 	or	r3,r5,r4
  8043cc:	1004c03a 	cmpne	r2,r2,zero
  8043d0:	1886b03a 	or	r3,r3,r2
  8043d4:	188001cc 	andi	r2,r3,7
  8043d8:	10000726 	beq	r2,zero,8043f8 <__muldf3+0x7a4>
  8043dc:	188003cc 	andi	r2,r3,15
  8043e0:	01000104 	movi	r4,4
  8043e4:	11000426 	beq	r2,r4,8043f8 <__muldf3+0x7a4>
  8043e8:	1805883a 	mov	r2,r3
  8043ec:	10c00104 	addi	r3,r2,4
  8043f0:	1885803a 	cmpltu	r2,r3,r2
  8043f4:	88a3883a 	add	r17,r17,r2
  8043f8:	8880202c 	andhi	r2,r17,128
  8043fc:	10001c26 	beq	r2,zero,804470 <__muldf3+0x81c>
  804400:	3027883a 	mov	r19,r6
  804404:	00800044 	movi	r2,1
  804408:	0021883a 	mov	r16,zero
  80440c:	002d883a 	mov	r22,zero
  804410:	003e6f06 	br	803dd0 <__alt_data_end+0xff803dd0>
  804414:	4007883a 	mov	r3,r8
  804418:	003f9706 	br	804278 <__alt_data_end+0xff804278>
  80441c:	017ff844 	movi	r5,-31
  804420:	2885c83a 	sub	r2,r5,r2
  804424:	888ad83a 	srl	r5,r17,r2
  804428:	00800804 	movi	r2,32
  80442c:	18801a26 	beq	r3,r2,804498 <__muldf3+0x844>
  804430:	01001004 	movi	r4,64
  804434:	20c7c83a 	sub	r3,r4,r3
  804438:	88e2983a 	sll	r17,r17,r3
  80443c:	8ca4b03a 	or	r18,r17,r18
  804440:	9004c03a 	cmpne	r2,r18,zero
  804444:	2884b03a 	or	r2,r5,r2
  804448:	144001cc 	andi	r17,r2,7
  80444c:	88000d1e 	bne	r17,zero,804484 <__muldf3+0x830>
  804450:	0021883a 	mov	r16,zero
  804454:	102cd0fa 	srli	r22,r2,3
  804458:	3027883a 	mov	r19,r6
  80445c:	0005883a 	mov	r2,zero
  804460:	b46cb03a 	or	r22,r22,r17
  804464:	003e5a06 	br	803dd0 <__alt_data_end+0xff803dd0>
  804468:	1007883a 	mov	r3,r2
  80446c:	0023883a 	mov	r17,zero
  804470:	8820927a 	slli	r16,r17,9
  804474:	1805883a 	mov	r2,r3
  804478:	8822977a 	slli	r17,r17,29
  80447c:	8020d33a 	srli	r16,r16,12
  804480:	003ff406 	br	804454 <__alt_data_end+0xff804454>
  804484:	10c003cc 	andi	r3,r2,15
  804488:	01000104 	movi	r4,4
  80448c:	193ff626 	beq	r3,r4,804468 <__alt_data_end+0xff804468>
  804490:	0023883a 	mov	r17,zero
  804494:	003fd506 	br	8043ec <__alt_data_end+0xff8043ec>
  804498:	0023883a 	mov	r17,zero
  80449c:	003fe706 	br	80443c <__alt_data_end+0xff80443c>
  8044a0:	00800434 	movhi	r2,16
  8044a4:	8c000234 	orhi	r16,r17,8
  8044a8:	10bfffc4 	addi	r2,r2,-1
  8044ac:	3027883a 	mov	r19,r6
  8044b0:	80a0703a 	and	r16,r16,r2
  8044b4:	902d883a 	mov	r22,r18
  8044b8:	003ead06 	br	803f70 <__alt_data_end+0xff803f70>

008044bc <__extendsfdf2>:
  8044bc:	200ad5fa 	srli	r5,r4,23
  8044c0:	defffd04 	addi	sp,sp,-12
  8044c4:	dc400115 	stw	r17,4(sp)
  8044c8:	29403fcc 	andi	r5,r5,255
  8044cc:	29800044 	addi	r6,r5,1
  8044d0:	04402034 	movhi	r17,128
  8044d4:	dc000015 	stw	r16,0(sp)
  8044d8:	8c7fffc4 	addi	r17,r17,-1
  8044dc:	dfc00215 	stw	ra,8(sp)
  8044e0:	31803fcc 	andi	r6,r6,255
  8044e4:	00800044 	movi	r2,1
  8044e8:	8922703a 	and	r17,r17,r4
  8044ec:	2020d7fa 	srli	r16,r4,31
  8044f0:	1180110e 	bge	r2,r6,804538 <__extendsfdf2+0x7c>
  8044f4:	880cd0fa 	srli	r6,r17,3
  8044f8:	8822977a 	slli	r17,r17,29
  8044fc:	2940e004 	addi	r5,r5,896
  804500:	2941ffcc 	andi	r5,r5,2047
  804504:	2804953a 	slli	r2,r5,20
  804508:	01400434 	movhi	r5,16
  80450c:	800697fa 	slli	r3,r16,31
  804510:	297fffc4 	addi	r5,r5,-1
  804514:	314a703a 	and	r5,r6,r5
  804518:	288ab03a 	or	r5,r5,r2
  80451c:	28c6b03a 	or	r3,r5,r3
  804520:	8805883a 	mov	r2,r17
  804524:	dfc00217 	ldw	ra,8(sp)
  804528:	dc400117 	ldw	r17,4(sp)
  80452c:	dc000017 	ldw	r16,0(sp)
  804530:	dec00304 	addi	sp,sp,12
  804534:	f800283a 	ret
  804538:	2800111e 	bne	r5,zero,804580 <__extendsfdf2+0xc4>
  80453c:	88001c26 	beq	r17,zero,8045b0 <__extendsfdf2+0xf4>
  804540:	8809883a 	mov	r4,r17
  804544:	08047740 	call	804774 <__clzsi2>
  804548:	00c00284 	movi	r3,10
  80454c:	18801b16 	blt	r3,r2,8045bc <__extendsfdf2+0x100>
  804550:	018002c4 	movi	r6,11
  804554:	308dc83a 	sub	r6,r6,r2
  804558:	11000544 	addi	r4,r2,21
  80455c:	8986d83a 	srl	r3,r17,r6
  804560:	8922983a 	sll	r17,r17,r4
  804564:	0180e244 	movi	r6,905
  804568:	01400434 	movhi	r5,16
  80456c:	3085c83a 	sub	r2,r6,r2
  804570:	297fffc4 	addi	r5,r5,-1
  804574:	194c703a 	and	r6,r3,r5
  804578:	1141ffcc 	andi	r5,r2,2047
  80457c:	003fe006 	br	804500 <__alt_data_end+0xff804500>
  804580:	88000826 	beq	r17,zero,8045a4 <__extendsfdf2+0xe8>
  804584:	880cd0fa 	srli	r6,r17,3
  804588:	00800434 	movhi	r2,16
  80458c:	10bfffc4 	addi	r2,r2,-1
  804590:	31800234 	orhi	r6,r6,8
  804594:	8822977a 	slli	r17,r17,29
  804598:	308c703a 	and	r6,r6,r2
  80459c:	0141ffc4 	movi	r5,2047
  8045a0:	003fd706 	br	804500 <__alt_data_end+0xff804500>
  8045a4:	0141ffc4 	movi	r5,2047
  8045a8:	000d883a 	mov	r6,zero
  8045ac:	003fd406 	br	804500 <__alt_data_end+0xff804500>
  8045b0:	000b883a 	mov	r5,zero
  8045b4:	000d883a 	mov	r6,zero
  8045b8:	003fd106 	br	804500 <__alt_data_end+0xff804500>
  8045bc:	11bffd44 	addi	r6,r2,-11
  8045c0:	8986983a 	sll	r3,r17,r6
  8045c4:	0023883a 	mov	r17,zero
  8045c8:	003fe606 	br	804564 <__alt_data_end+0xff804564>

008045cc <__truncdfsf2>:
  8045cc:	2810d53a 	srli	r8,r5,20
  8045d0:	01c00434 	movhi	r7,16
  8045d4:	39ffffc4 	addi	r7,r7,-1
  8045d8:	29ce703a 	and	r7,r5,r7
  8045dc:	4201ffcc 	andi	r8,r8,2047
  8045e0:	380e90fa 	slli	r7,r7,3
  8045e4:	200cd77a 	srli	r6,r4,29
  8045e8:	42400044 	addi	r9,r8,1
  8045ec:	4a41ffcc 	andi	r9,r9,2047
  8045f0:	00c00044 	movi	r3,1
  8045f4:	280ad7fa 	srli	r5,r5,31
  8045f8:	31ceb03a 	or	r7,r6,r7
  8045fc:	200490fa 	slli	r2,r4,3
  804600:	1a40230e 	bge	r3,r9,804690 <__truncdfsf2+0xc4>
  804604:	40ff2004 	addi	r3,r8,-896
  804608:	01803f84 	movi	r6,254
  80460c:	30c01516 	blt	r6,r3,804664 <__truncdfsf2+0x98>
  804610:	00c0380e 	bge	zero,r3,8046f4 <__truncdfsf2+0x128>
  804614:	200c91ba 	slli	r6,r4,6
  804618:	380e90fa 	slli	r7,r7,3
  80461c:	1004d77a 	srli	r2,r2,29
  804620:	300cc03a 	cmpne	r6,r6,zero
  804624:	31ccb03a 	or	r6,r6,r7
  804628:	308cb03a 	or	r6,r6,r2
  80462c:	308001cc 	andi	r2,r6,7
  804630:	10000426 	beq	r2,zero,804644 <__truncdfsf2+0x78>
  804634:	308003cc 	andi	r2,r6,15
  804638:	01000104 	movi	r4,4
  80463c:	11000126 	beq	r2,r4,804644 <__truncdfsf2+0x78>
  804640:	31800104 	addi	r6,r6,4
  804644:	3081002c 	andhi	r2,r6,1024
  804648:	10001626 	beq	r2,zero,8046a4 <__truncdfsf2+0xd8>
  80464c:	18c00044 	addi	r3,r3,1
  804650:	00803fc4 	movi	r2,255
  804654:	18800326 	beq	r3,r2,804664 <__truncdfsf2+0x98>
  804658:	300c91ba 	slli	r6,r6,6
  80465c:	300cd27a 	srli	r6,r6,9
  804660:	00000206 	br	80466c <__truncdfsf2+0xa0>
  804664:	00ffffc4 	movi	r3,-1
  804668:	000d883a 	mov	r6,zero
  80466c:	18c03fcc 	andi	r3,r3,255
  804670:	180895fa 	slli	r4,r3,23
  804674:	00c02034 	movhi	r3,128
  804678:	280a97fa 	slli	r5,r5,31
  80467c:	18ffffc4 	addi	r3,r3,-1
  804680:	30c6703a 	and	r3,r6,r3
  804684:	1906b03a 	or	r3,r3,r4
  804688:	1944b03a 	or	r2,r3,r5
  80468c:	f800283a 	ret
  804690:	40000b1e 	bne	r8,zero,8046c0 <__truncdfsf2+0xf4>
  804694:	388cb03a 	or	r6,r7,r2
  804698:	0007883a 	mov	r3,zero
  80469c:	30000426 	beq	r6,zero,8046b0 <__truncdfsf2+0xe4>
  8046a0:	01800144 	movi	r6,5
  8046a4:	00803fc4 	movi	r2,255
  8046a8:	300cd0fa 	srli	r6,r6,3
  8046ac:	18800a26 	beq	r3,r2,8046d8 <__truncdfsf2+0x10c>
  8046b0:	00802034 	movhi	r2,128
  8046b4:	10bfffc4 	addi	r2,r2,-1
  8046b8:	308c703a 	and	r6,r6,r2
  8046bc:	003feb06 	br	80466c <__alt_data_end+0xff80466c>
  8046c0:	3888b03a 	or	r4,r7,r2
  8046c4:	203fe726 	beq	r4,zero,804664 <__alt_data_end+0xff804664>
  8046c8:	380c90fa 	slli	r6,r7,3
  8046cc:	00c03fc4 	movi	r3,255
  8046d0:	31808034 	orhi	r6,r6,512
  8046d4:	003fd506 	br	80462c <__alt_data_end+0xff80462c>
  8046d8:	303fe226 	beq	r6,zero,804664 <__alt_data_end+0xff804664>
  8046dc:	00802034 	movhi	r2,128
  8046e0:	31801034 	orhi	r6,r6,64
  8046e4:	10bfffc4 	addi	r2,r2,-1
  8046e8:	00ffffc4 	movi	r3,-1
  8046ec:	308c703a 	and	r6,r6,r2
  8046f0:	003fde06 	br	80466c <__alt_data_end+0xff80466c>
  8046f4:	013ffa44 	movi	r4,-23
  8046f8:	19000e16 	blt	r3,r4,804734 <__truncdfsf2+0x168>
  8046fc:	01000784 	movi	r4,30
  804700:	20c9c83a 	sub	r4,r4,r3
  804704:	018007c4 	movi	r6,31
  804708:	39c02034 	orhi	r7,r7,128
  80470c:	31000b16 	blt	r6,r4,80473c <__truncdfsf2+0x170>
  804710:	423f2084 	addi	r8,r8,-894
  804714:	120c983a 	sll	r6,r2,r8
  804718:	3a0e983a 	sll	r7,r7,r8
  80471c:	1104d83a 	srl	r2,r2,r4
  804720:	300cc03a 	cmpne	r6,r6,zero
  804724:	31ceb03a 	or	r7,r6,r7
  804728:	388cb03a 	or	r6,r7,r2
  80472c:	0007883a 	mov	r3,zero
  804730:	003fbe06 	br	80462c <__alt_data_end+0xff80462c>
  804734:	0007883a 	mov	r3,zero
  804738:	003fd906 	br	8046a0 <__alt_data_end+0xff8046a0>
  80473c:	01bfff84 	movi	r6,-2
  804740:	30cdc83a 	sub	r6,r6,r3
  804744:	00c00804 	movi	r3,32
  804748:	398cd83a 	srl	r6,r7,r6
  80474c:	20c00726 	beq	r4,r3,80476c <__truncdfsf2+0x1a0>
  804750:	423f2884 	addi	r8,r8,-862
  804754:	3a0e983a 	sll	r7,r7,r8
  804758:	3884b03a 	or	r2,r7,r2
  80475c:	1004c03a 	cmpne	r2,r2,zero
  804760:	118cb03a 	or	r6,r2,r6
  804764:	0007883a 	mov	r3,zero
  804768:	003fb006 	br	80462c <__alt_data_end+0xff80462c>
  80476c:	000f883a 	mov	r7,zero
  804770:	003ff906 	br	804758 <__alt_data_end+0xff804758>

00804774 <__clzsi2>:
  804774:	00bfffd4 	movui	r2,65535
  804778:	11000536 	bltu	r2,r4,804790 <__clzsi2+0x1c>
  80477c:	00803fc4 	movi	r2,255
  804780:	11000f36 	bltu	r2,r4,8047c0 <__clzsi2+0x4c>
  804784:	00800804 	movi	r2,32
  804788:	0007883a 	mov	r3,zero
  80478c:	00000506 	br	8047a4 <__clzsi2+0x30>
  804790:	00804034 	movhi	r2,256
  804794:	10bfffc4 	addi	r2,r2,-1
  804798:	11000c2e 	bgeu	r2,r4,8047cc <__clzsi2+0x58>
  80479c:	00800204 	movi	r2,8
  8047a0:	00c00604 	movi	r3,24
  8047a4:	20c8d83a 	srl	r4,r4,r3
  8047a8:	00c02074 	movhi	r3,129
  8047ac:	18cce704 	addi	r3,r3,13212
  8047b0:	1909883a 	add	r4,r3,r4
  8047b4:	20c00003 	ldbu	r3,0(r4)
  8047b8:	10c5c83a 	sub	r2,r2,r3
  8047bc:	f800283a 	ret
  8047c0:	00800604 	movi	r2,24
  8047c4:	00c00204 	movi	r3,8
  8047c8:	003ff606 	br	8047a4 <__alt_data_end+0xff8047a4>
  8047cc:	00800404 	movi	r2,16
  8047d0:	1007883a 	mov	r3,r2
  8047d4:	003ff306 	br	8047a4 <__alt_data_end+0xff8047a4>

008047d8 <__mulsi3>:
  8047d8:	0005883a 	mov	r2,zero
  8047dc:	20000726 	beq	r4,zero,8047fc <__mulsi3+0x24>
  8047e0:	20c0004c 	andi	r3,r4,1
  8047e4:	2008d07a 	srli	r4,r4,1
  8047e8:	18000126 	beq	r3,zero,8047f0 <__mulsi3+0x18>
  8047ec:	1145883a 	add	r2,r2,r5
  8047f0:	294b883a 	add	r5,r5,r5
  8047f4:	203ffa1e 	bne	r4,zero,8047e0 <__alt_data_end+0xff8047e0>
  8047f8:	f800283a 	ret
  8047fc:	f800283a 	ret

00804800 <_printf_r>:
  804800:	defffd04 	addi	sp,sp,-12
  804804:	2805883a 	mov	r2,r5
  804808:	dfc00015 	stw	ra,0(sp)
  80480c:	d9800115 	stw	r6,4(sp)
  804810:	d9c00215 	stw	r7,8(sp)
  804814:	21400217 	ldw	r5,8(r4)
  804818:	d9c00104 	addi	r7,sp,4
  80481c:	100d883a 	mov	r6,r2
  804820:	08049d80 	call	8049d8 <___vfprintf_internal_r>
  804824:	dfc00017 	ldw	ra,0(sp)
  804828:	dec00304 	addi	sp,sp,12
  80482c:	f800283a 	ret

00804830 <printf>:
  804830:	defffc04 	addi	sp,sp,-16
  804834:	dfc00015 	stw	ra,0(sp)
  804838:	d9400115 	stw	r5,4(sp)
  80483c:	d9800215 	stw	r6,8(sp)
  804840:	d9c00315 	stw	r7,12(sp)
  804844:	00802074 	movhi	r2,129
  804848:	10945104 	addi	r2,r2,20804
  80484c:	10800017 	ldw	r2,0(r2)
  804850:	200b883a 	mov	r5,r4
  804854:	d9800104 	addi	r6,sp,4
  804858:	11000217 	ldw	r4,8(r2)
  80485c:	0806cb40 	call	806cb4 <__vfprintf_internal>
  804860:	dfc00017 	ldw	ra,0(sp)
  804864:	dec00404 	addi	sp,sp,16
  804868:	f800283a 	ret

0080486c <_puts_r>:
  80486c:	defff604 	addi	sp,sp,-40
  804870:	dc000715 	stw	r16,28(sp)
  804874:	2021883a 	mov	r16,r4
  804878:	2809883a 	mov	r4,r5
  80487c:	dc400815 	stw	r17,32(sp)
  804880:	dfc00915 	stw	ra,36(sp)
  804884:	2823883a 	mov	r17,r5
  804888:	08049400 	call	804940 <strlen>
  80488c:	10c00044 	addi	r3,r2,1
  804890:	d8800115 	stw	r2,4(sp)
  804894:	00802074 	movhi	r2,129
  804898:	108d2704 	addi	r2,r2,13468
  80489c:	d8800215 	stw	r2,8(sp)
  8048a0:	00800044 	movi	r2,1
  8048a4:	d8800315 	stw	r2,12(sp)
  8048a8:	00800084 	movi	r2,2
  8048ac:	dc400015 	stw	r17,0(sp)
  8048b0:	d8c00615 	stw	r3,24(sp)
  8048b4:	dec00415 	stw	sp,16(sp)
  8048b8:	d8800515 	stw	r2,20(sp)
  8048bc:	80000226 	beq	r16,zero,8048c8 <_puts_r+0x5c>
  8048c0:	80800e17 	ldw	r2,56(r16)
  8048c4:	10001426 	beq	r2,zero,804918 <_puts_r+0xac>
  8048c8:	81400217 	ldw	r5,8(r16)
  8048cc:	2880030b 	ldhu	r2,12(r5)
  8048d0:	10c8000c 	andi	r3,r2,8192
  8048d4:	1800061e 	bne	r3,zero,8048f0 <_puts_r+0x84>
  8048d8:	29001917 	ldw	r4,100(r5)
  8048dc:	00f7ffc4 	movi	r3,-8193
  8048e0:	10880014 	ori	r2,r2,8192
  8048e4:	20c6703a 	and	r3,r4,r3
  8048e8:	2880030d 	sth	r2,12(r5)
  8048ec:	28c01915 	stw	r3,100(r5)
  8048f0:	d9800404 	addi	r6,sp,16
  8048f4:	8009883a 	mov	r4,r16
  8048f8:	080921c0 	call	80921c <__sfvwrite_r>
  8048fc:	1000091e 	bne	r2,zero,804924 <_puts_r+0xb8>
  804900:	00800284 	movi	r2,10
  804904:	dfc00917 	ldw	ra,36(sp)
  804908:	dc400817 	ldw	r17,32(sp)
  80490c:	dc000717 	ldw	r16,28(sp)
  804910:	dec00a04 	addi	sp,sp,40
  804914:	f800283a 	ret
  804918:	8009883a 	mov	r4,r16
  80491c:	0808d980 	call	808d98 <__sinit>
  804920:	003fe906 	br	8048c8 <__alt_data_end+0xff8048c8>
  804924:	00bfffc4 	movi	r2,-1
  804928:	003ff606 	br	804904 <__alt_data_end+0xff804904>

0080492c <puts>:
  80492c:	00802074 	movhi	r2,129
  804930:	10945104 	addi	r2,r2,20804
  804934:	200b883a 	mov	r5,r4
  804938:	11000017 	ldw	r4,0(r2)
  80493c:	080486c1 	jmpi	80486c <_puts_r>

00804940 <strlen>:
  804940:	208000cc 	andi	r2,r4,3
  804944:	10002026 	beq	r2,zero,8049c8 <strlen+0x88>
  804948:	20800007 	ldb	r2,0(r4)
  80494c:	10002026 	beq	r2,zero,8049d0 <strlen+0x90>
  804950:	2005883a 	mov	r2,r4
  804954:	00000206 	br	804960 <strlen+0x20>
  804958:	10c00007 	ldb	r3,0(r2)
  80495c:	18001826 	beq	r3,zero,8049c0 <strlen+0x80>
  804960:	10800044 	addi	r2,r2,1
  804964:	10c000cc 	andi	r3,r2,3
  804968:	183ffb1e 	bne	r3,zero,804958 <__alt_data_end+0xff804958>
  80496c:	10c00017 	ldw	r3,0(r2)
  804970:	01ffbff4 	movhi	r7,65279
  804974:	39ffbfc4 	addi	r7,r7,-257
  804978:	00ca303a 	nor	r5,zero,r3
  80497c:	01a02074 	movhi	r6,32897
  804980:	19c7883a 	add	r3,r3,r7
  804984:	31a02004 	addi	r6,r6,-32640
  804988:	1946703a 	and	r3,r3,r5
  80498c:	1986703a 	and	r3,r3,r6
  804990:	1800091e 	bne	r3,zero,8049b8 <strlen+0x78>
  804994:	10800104 	addi	r2,r2,4
  804998:	10c00017 	ldw	r3,0(r2)
  80499c:	19cb883a 	add	r5,r3,r7
  8049a0:	00c6303a 	nor	r3,zero,r3
  8049a4:	28c6703a 	and	r3,r5,r3
  8049a8:	1986703a 	and	r3,r3,r6
  8049ac:	183ff926 	beq	r3,zero,804994 <__alt_data_end+0xff804994>
  8049b0:	00000106 	br	8049b8 <strlen+0x78>
  8049b4:	10800044 	addi	r2,r2,1
  8049b8:	10c00007 	ldb	r3,0(r2)
  8049bc:	183ffd1e 	bne	r3,zero,8049b4 <__alt_data_end+0xff8049b4>
  8049c0:	1105c83a 	sub	r2,r2,r4
  8049c4:	f800283a 	ret
  8049c8:	2005883a 	mov	r2,r4
  8049cc:	003fe706 	br	80496c <__alt_data_end+0xff80496c>
  8049d0:	0005883a 	mov	r2,zero
  8049d4:	f800283a 	ret

008049d8 <___vfprintf_internal_r>:
  8049d8:	deffb804 	addi	sp,sp,-288
  8049dc:	dfc04715 	stw	ra,284(sp)
  8049e0:	ddc04515 	stw	r23,276(sp)
  8049e4:	dd404315 	stw	r21,268(sp)
  8049e8:	d9002d15 	stw	r4,180(sp)
  8049ec:	282f883a 	mov	r23,r5
  8049f0:	302b883a 	mov	r21,r6
  8049f4:	d9c02e15 	stw	r7,184(sp)
  8049f8:	df004615 	stw	fp,280(sp)
  8049fc:	dd804415 	stw	r22,272(sp)
  804a00:	dd004215 	stw	r20,264(sp)
  804a04:	dcc04115 	stw	r19,260(sp)
  804a08:	dc804015 	stw	r18,256(sp)
  804a0c:	dc403f15 	stw	r17,252(sp)
  804a10:	dc003e15 	stw	r16,248(sp)
  804a14:	08099180 	call	809918 <_localeconv_r>
  804a18:	10800017 	ldw	r2,0(r2)
  804a1c:	1009883a 	mov	r4,r2
  804a20:	d8803415 	stw	r2,208(sp)
  804a24:	08049400 	call	804940 <strlen>
  804a28:	d8803715 	stw	r2,220(sp)
  804a2c:	d8802d17 	ldw	r2,180(sp)
  804a30:	10000226 	beq	r2,zero,804a3c <___vfprintf_internal_r+0x64>
  804a34:	10800e17 	ldw	r2,56(r2)
  804a38:	1000fb26 	beq	r2,zero,804e28 <___vfprintf_internal_r+0x450>
  804a3c:	b880030b 	ldhu	r2,12(r23)
  804a40:	10c8000c 	andi	r3,r2,8192
  804a44:	1800061e 	bne	r3,zero,804a60 <___vfprintf_internal_r+0x88>
  804a48:	b9001917 	ldw	r4,100(r23)
  804a4c:	00f7ffc4 	movi	r3,-8193
  804a50:	10880014 	ori	r2,r2,8192
  804a54:	20c6703a 	and	r3,r4,r3
  804a58:	b880030d 	sth	r2,12(r23)
  804a5c:	b8c01915 	stw	r3,100(r23)
  804a60:	10c0020c 	andi	r3,r2,8
  804a64:	1800c326 	beq	r3,zero,804d74 <___vfprintf_internal_r+0x39c>
  804a68:	b8c00417 	ldw	r3,16(r23)
  804a6c:	1800c126 	beq	r3,zero,804d74 <___vfprintf_internal_r+0x39c>
  804a70:	1080068c 	andi	r2,r2,26
  804a74:	00c00284 	movi	r3,10
  804a78:	10c0c626 	beq	r2,r3,804d94 <___vfprintf_internal_r+0x3bc>
  804a7c:	d8c00404 	addi	r3,sp,16
  804a80:	05002074 	movhi	r20,129
  804a84:	d9001e04 	addi	r4,sp,120
  804a88:	a50d3884 	addi	r20,r20,13538
  804a8c:	d8c01e15 	stw	r3,120(sp)
  804a90:	d8002015 	stw	zero,128(sp)
  804a94:	d8001f15 	stw	zero,124(sp)
  804a98:	d8003315 	stw	zero,204(sp)
  804a9c:	d8003615 	stw	zero,216(sp)
  804aa0:	d8003815 	stw	zero,224(sp)
  804aa4:	1811883a 	mov	r8,r3
  804aa8:	d8003915 	stw	zero,228(sp)
  804aac:	d8003a15 	stw	zero,232(sp)
  804ab0:	d8002f15 	stw	zero,188(sp)
  804ab4:	d9002815 	stw	r4,160(sp)
  804ab8:	a8800007 	ldb	r2,0(r21)
  804abc:	10028b26 	beq	r2,zero,8054ec <___vfprintf_internal_r+0xb14>
  804ac0:	00c00944 	movi	r3,37
  804ac4:	a823883a 	mov	r17,r21
  804ac8:	10c0021e 	bne	r2,r3,804ad4 <___vfprintf_internal_r+0xfc>
  804acc:	00001406 	br	804b20 <___vfprintf_internal_r+0x148>
  804ad0:	10c00326 	beq	r2,r3,804ae0 <___vfprintf_internal_r+0x108>
  804ad4:	8c400044 	addi	r17,r17,1
  804ad8:	88800007 	ldb	r2,0(r17)
  804adc:	103ffc1e 	bne	r2,zero,804ad0 <__alt_data_end+0xff804ad0>
  804ae0:	8d61c83a 	sub	r16,r17,r21
  804ae4:	80000e26 	beq	r16,zero,804b20 <___vfprintf_internal_r+0x148>
  804ae8:	d8c02017 	ldw	r3,128(sp)
  804aec:	d8801f17 	ldw	r2,124(sp)
  804af0:	45400015 	stw	r21,0(r8)
  804af4:	1c07883a 	add	r3,r3,r16
  804af8:	10800044 	addi	r2,r2,1
  804afc:	d8c02015 	stw	r3,128(sp)
  804b00:	44000115 	stw	r16,4(r8)
  804b04:	d8801f15 	stw	r2,124(sp)
  804b08:	00c001c4 	movi	r3,7
  804b0c:	1880a916 	blt	r3,r2,804db4 <___vfprintf_internal_r+0x3dc>
  804b10:	42000204 	addi	r8,r8,8
  804b14:	d9402f17 	ldw	r5,188(sp)
  804b18:	2c0b883a 	add	r5,r5,r16
  804b1c:	d9402f15 	stw	r5,188(sp)
  804b20:	88800007 	ldb	r2,0(r17)
  804b24:	1000aa26 	beq	r2,zero,804dd0 <___vfprintf_internal_r+0x3f8>
  804b28:	8d400044 	addi	r21,r17,1
  804b2c:	8c400047 	ldb	r17,1(r17)
  804b30:	0021883a 	mov	r16,zero
  804b34:	00bfffc4 	movi	r2,-1
  804b38:	0025883a 	mov	r18,zero
  804b3c:	dc002905 	stb	r16,164(sp)
  804b40:	d8002785 	stb	zero,158(sp)
  804b44:	d8002b05 	stb	zero,172(sp)
  804b48:	d8802a15 	stw	r2,168(sp)
  804b4c:	d8003115 	stw	zero,196(sp)
  804b50:	04c01604 	movi	r19,88
  804b54:	05800244 	movi	r22,9
  804b58:	9021883a 	mov	r16,r18
  804b5c:	4039883a 	mov	fp,r8
  804b60:	ad400044 	addi	r21,r21,1
  804b64:	88bff804 	addi	r2,r17,-32
  804b68:	98833236 	bltu	r19,r2,805834 <___vfprintf_internal_r+0xe5c>
  804b6c:	100490ba 	slli	r2,r2,2
  804b70:	00c02034 	movhi	r3,128
  804b74:	18d2e104 	addi	r3,r3,19332
  804b78:	10c5883a 	add	r2,r2,r3
  804b7c:	10800017 	ldw	r2,0(r2)
  804b80:	1000683a 	jmp	r2
  804b84:	0080572c 	andhi	r2,zero,348
  804b88:	00805834 	movhi	r2,352
  804b8c:	00805834 	movhi	r2,352
  804b90:	0080574c 	andi	r2,zero,349
  804b94:	00805834 	movhi	r2,352
  804b98:	00805834 	movhi	r2,352
  804b9c:	00805834 	movhi	r2,352
  804ba0:	00805834 	movhi	r2,352
  804ba4:	00805834 	movhi	r2,352
  804ba8:	00805834 	movhi	r2,352
  804bac:	00804e34 	movhi	r2,312
  804bb0:	0080563c 	xorhi	r2,zero,344
  804bb4:	00805834 	movhi	r2,352
  804bb8:	00804cf8 	rdprs	r2,zero,307
  804bbc:	00804e58 	cmpnei	r2,zero,313
  804bc0:	00805834 	movhi	r2,352
  804bc4:	00804ea8 	cmpgeui	r2,zero,314
  804bc8:	00804eb4 	movhi	r2,314
  804bcc:	00804eb4 	movhi	r2,314
  804bd0:	00804eb4 	movhi	r2,314
  804bd4:	00804eb4 	movhi	r2,314
  804bd8:	00804eb4 	movhi	r2,314
  804bdc:	00804eb4 	movhi	r2,314
  804be0:	00804eb4 	movhi	r2,314
  804be4:	00804eb4 	movhi	r2,314
  804be8:	00804eb4 	movhi	r2,314
  804bec:	00805834 	movhi	r2,352
  804bf0:	00805834 	movhi	r2,352
  804bf4:	00805834 	movhi	r2,352
  804bf8:	00805834 	movhi	r2,352
  804bfc:	00805834 	movhi	r2,352
  804c00:	00805834 	movhi	r2,352
  804c04:	00805834 	movhi	r2,352
  804c08:	00805834 	movhi	r2,352
  804c0c:	00805834 	movhi	r2,352
  804c10:	00805834 	movhi	r2,352
  804c14:	00804ef0 	cmpltui	r2,zero,315
  804c18:	00804fb8 	rdprs	r2,zero,318
  804c1c:	00805834 	movhi	r2,352
  804c20:	00804fb8 	rdprs	r2,zero,318
  804c24:	00805834 	movhi	r2,352
  804c28:	00805834 	movhi	r2,352
  804c2c:	00805834 	movhi	r2,352
  804c30:	00805834 	movhi	r2,352
  804c34:	00805064 	muli	r2,zero,321
  804c38:	00805834 	movhi	r2,352
  804c3c:	00805834 	movhi	r2,352
  804c40:	00805070 	cmpltui	r2,zero,321
  804c44:	00805834 	movhi	r2,352
  804c48:	00805834 	movhi	r2,352
  804c4c:	00805834 	movhi	r2,352
  804c50:	00805834 	movhi	r2,352
  804c54:	00805834 	movhi	r2,352
  804c58:	008054f4 	movhi	r2,339
  804c5c:	00805834 	movhi	r2,352
  804c60:	00805834 	movhi	r2,352
  804c64:	00805560 	cmpeqi	r2,zero,341
  804c68:	00805834 	movhi	r2,352
  804c6c:	00805834 	movhi	r2,352
  804c70:	00805834 	movhi	r2,352
  804c74:	00805834 	movhi	r2,352
  804c78:	00805834 	movhi	r2,352
  804c7c:	00805834 	movhi	r2,352
  804c80:	00805834 	movhi	r2,352
  804c84:	00805834 	movhi	r2,352
  804c88:	00805834 	movhi	r2,352
  804c8c:	00805834 	movhi	r2,352
  804c90:	008057d8 	cmpnei	r2,zero,351
  804c94:	00805758 	cmpnei	r2,zero,349
  804c98:	00804fb8 	rdprs	r2,zero,318
  804c9c:	00804fb8 	rdprs	r2,zero,318
  804ca0:	00804fb8 	rdprs	r2,zero,318
  804ca4:	00805778 	rdprs	r2,zero,349
  804ca8:	00805758 	cmpnei	r2,zero,349
  804cac:	00805834 	movhi	r2,352
  804cb0:	00805834 	movhi	r2,352
  804cb4:	00805784 	movi	r2,350
  804cb8:	00805834 	movhi	r2,352
  804cbc:	00805798 	cmpnei	r2,zero,350
  804cc0:	0080561c 	xori	r2,zero,344
  804cc4:	00804d04 	movi	r2,308
  804cc8:	00805654 	movui	r2,345
  804ccc:	00805834 	movhi	r2,352
  804cd0:	00805660 	cmpeqi	r2,zero,345
  804cd4:	00805834 	movhi	r2,352
  804cd8:	008056c4 	movi	r2,347
  804cdc:	00805834 	movhi	r2,352
  804ce0:	00805834 	movhi	r2,352
  804ce4:	008056e4 	muli	r2,zero,347
  804ce8:	d8c03117 	ldw	r3,196(sp)
  804cec:	d8802e15 	stw	r2,184(sp)
  804cf0:	00c7c83a 	sub	r3,zero,r3
  804cf4:	d8c03115 	stw	r3,196(sp)
  804cf8:	84000114 	ori	r16,r16,4
  804cfc:	ac400007 	ldb	r17,0(r21)
  804d00:	003f9706 	br	804b60 <__alt_data_end+0xff804b60>
  804d04:	00800c04 	movi	r2,48
  804d08:	d8802705 	stb	r2,156(sp)
  804d0c:	00801e04 	movi	r2,120
  804d10:	d8802745 	stb	r2,157(sp)
  804d14:	d9002a17 	ldw	r4,168(sp)
  804d18:	d8802e17 	ldw	r2,184(sp)
  804d1c:	d8002785 	stb	zero,158(sp)
  804d20:	e011883a 	mov	r8,fp
  804d24:	10c00104 	addi	r3,r2,4
  804d28:	14c00017 	ldw	r19,0(r2)
  804d2c:	002d883a 	mov	r22,zero
  804d30:	80800094 	ori	r2,r16,2
  804d34:	2002ca16 	blt	r4,zero,805860 <___vfprintf_internal_r+0xe88>
  804d38:	00bfdfc4 	movi	r2,-129
  804d3c:	80a4703a 	and	r18,r16,r2
  804d40:	d8c02e15 	stw	r3,184(sp)
  804d44:	94800094 	ori	r18,r18,2
  804d48:	9802b41e 	bne	r19,zero,80581c <___vfprintf_internal_r+0xe44>
  804d4c:	01402074 	movhi	r5,129
  804d50:	294d3104 	addi	r5,r5,13508
  804d54:	d9403915 	stw	r5,228(sp)
  804d58:	04401e04 	movi	r17,120
  804d5c:	d8802a17 	ldw	r2,168(sp)
  804d60:	0039883a 	mov	fp,zero
  804d64:	1001fa26 	beq	r2,zero,805550 <___vfprintf_internal_r+0xb78>
  804d68:	0027883a 	mov	r19,zero
  804d6c:	002d883a 	mov	r22,zero
  804d70:	00021906 	br	8055d8 <___vfprintf_internal_r+0xc00>
  804d74:	d9002d17 	ldw	r4,180(sp)
  804d78:	b80b883a 	mov	r5,r23
  804d7c:	0806d8c0 	call	806d8c <__swsetup_r>
  804d80:	1005dc1e 	bne	r2,zero,8064f4 <___vfprintf_internal_r+0x1b1c>
  804d84:	b880030b 	ldhu	r2,12(r23)
  804d88:	00c00284 	movi	r3,10
  804d8c:	1080068c 	andi	r2,r2,26
  804d90:	10ff3a1e 	bne	r2,r3,804a7c <__alt_data_end+0xff804a7c>
  804d94:	b880038f 	ldh	r2,14(r23)
  804d98:	103f3816 	blt	r2,zero,804a7c <__alt_data_end+0xff804a7c>
  804d9c:	d9c02e17 	ldw	r7,184(sp)
  804da0:	d9002d17 	ldw	r4,180(sp)
  804da4:	a80d883a 	mov	r6,r21
  804da8:	b80b883a 	mov	r5,r23
  804dac:	0806cd00 	call	806cd0 <__sbprintf>
  804db0:	00001106 	br	804df8 <___vfprintf_internal_r+0x420>
  804db4:	d9002d17 	ldw	r4,180(sp)
  804db8:	d9801e04 	addi	r6,sp,120
  804dbc:	b80b883a 	mov	r5,r23
  804dc0:	080c1b80 	call	80c1b8 <__sprint_r>
  804dc4:	1000081e 	bne	r2,zero,804de8 <___vfprintf_internal_r+0x410>
  804dc8:	da000404 	addi	r8,sp,16
  804dcc:	003f5106 	br	804b14 <__alt_data_end+0xff804b14>
  804dd0:	d8802017 	ldw	r2,128(sp)
  804dd4:	10000426 	beq	r2,zero,804de8 <___vfprintf_internal_r+0x410>
  804dd8:	d9002d17 	ldw	r4,180(sp)
  804ddc:	d9801e04 	addi	r6,sp,120
  804de0:	b80b883a 	mov	r5,r23
  804de4:	080c1b80 	call	80c1b8 <__sprint_r>
  804de8:	b880030b 	ldhu	r2,12(r23)
  804dec:	1080100c 	andi	r2,r2,64
  804df0:	1005c01e 	bne	r2,zero,8064f4 <___vfprintf_internal_r+0x1b1c>
  804df4:	d8802f17 	ldw	r2,188(sp)
  804df8:	dfc04717 	ldw	ra,284(sp)
  804dfc:	df004617 	ldw	fp,280(sp)
  804e00:	ddc04517 	ldw	r23,276(sp)
  804e04:	dd804417 	ldw	r22,272(sp)
  804e08:	dd404317 	ldw	r21,268(sp)
  804e0c:	dd004217 	ldw	r20,264(sp)
  804e10:	dcc04117 	ldw	r19,260(sp)
  804e14:	dc804017 	ldw	r18,256(sp)
  804e18:	dc403f17 	ldw	r17,252(sp)
  804e1c:	dc003e17 	ldw	r16,248(sp)
  804e20:	dec04804 	addi	sp,sp,288
  804e24:	f800283a 	ret
  804e28:	d9002d17 	ldw	r4,180(sp)
  804e2c:	0808d980 	call	808d98 <__sinit>
  804e30:	003f0206 	br	804a3c <__alt_data_end+0xff804a3c>
  804e34:	d9002e17 	ldw	r4,184(sp)
  804e38:	d9402e17 	ldw	r5,184(sp)
  804e3c:	21000017 	ldw	r4,0(r4)
  804e40:	28800104 	addi	r2,r5,4
  804e44:	d9003115 	stw	r4,196(sp)
  804e48:	203fa716 	blt	r4,zero,804ce8 <__alt_data_end+0xff804ce8>
  804e4c:	d8802e15 	stw	r2,184(sp)
  804e50:	ac400007 	ldb	r17,0(r21)
  804e54:	003f4206 	br	804b60 <__alt_data_end+0xff804b60>
  804e58:	ac400007 	ldb	r17,0(r21)
  804e5c:	01000a84 	movi	r4,42
  804e60:	a8c00044 	addi	r3,r21,1
  804e64:	89075826 	beq	r17,r4,806bc8 <___vfprintf_internal_r+0x21f0>
  804e68:	8cbff404 	addi	r18,r17,-48
  804e6c:	b486ae36 	bltu	r22,r18,806928 <___vfprintf_internal_r+0x1f50>
  804e70:	0009883a 	mov	r4,zero
  804e74:	1823883a 	mov	r17,r3
  804e78:	01400284 	movi	r5,10
  804e7c:	08047d80 	call	8047d8 <__mulsi3>
  804e80:	88c00007 	ldb	r3,0(r17)
  804e84:	1489883a 	add	r4,r2,r18
  804e88:	8d400044 	addi	r21,r17,1
  804e8c:	1cbff404 	addi	r18,r3,-48
  804e90:	a823883a 	mov	r17,r21
  804e94:	b4bff82e 	bgeu	r22,r18,804e78 <__alt_data_end+0xff804e78>
  804e98:	1823883a 	mov	r17,r3
  804e9c:	2005f616 	blt	r4,zero,806678 <___vfprintf_internal_r+0x1ca0>
  804ea0:	d9002a15 	stw	r4,168(sp)
  804ea4:	003f2f06 	br	804b64 <__alt_data_end+0xff804b64>
  804ea8:	84002014 	ori	r16,r16,128
  804eac:	ac400007 	ldb	r17,0(r21)
  804eb0:	003f2b06 	br	804b60 <__alt_data_end+0xff804b60>
  804eb4:	8cbff404 	addi	r18,r17,-48
  804eb8:	d8003115 	stw	zero,196(sp)
  804ebc:	0009883a 	mov	r4,zero
  804ec0:	a823883a 	mov	r17,r21
  804ec4:	01400284 	movi	r5,10
  804ec8:	08047d80 	call	8047d8 <__mulsi3>
  804ecc:	88c00007 	ldb	r3,0(r17)
  804ed0:	9089883a 	add	r4,r18,r2
  804ed4:	ad400044 	addi	r21,r21,1
  804ed8:	1cbff404 	addi	r18,r3,-48
  804edc:	a823883a 	mov	r17,r21
  804ee0:	b4bff82e 	bgeu	r22,r18,804ec4 <__alt_data_end+0xff804ec4>
  804ee4:	1823883a 	mov	r17,r3
  804ee8:	d9003115 	stw	r4,196(sp)
  804eec:	003f1d06 	br	804b64 <__alt_data_end+0xff804b64>
  804ef0:	8025883a 	mov	r18,r16
  804ef4:	dc002903 	ldbu	r16,164(sp)
  804ef8:	e011883a 	mov	r8,fp
  804efc:	84003fcc 	andi	r16,r16,255
  804f00:	8007531e 	bne	r16,zero,806c50 <___vfprintf_internal_r+0x2278>
  804f04:	94800414 	ori	r18,r18,16
  804f08:	9080080c 	andi	r2,r18,32
  804f0c:	1003a326 	beq	r2,zero,805d9c <___vfprintf_internal_r+0x13c4>
  804f10:	d9002e17 	ldw	r4,184(sp)
  804f14:	20800117 	ldw	r2,4(r4)
  804f18:	24c00017 	ldw	r19,0(r4)
  804f1c:	21000204 	addi	r4,r4,8
  804f20:	d9002e15 	stw	r4,184(sp)
  804f24:	102d883a 	mov	r22,r2
  804f28:	10047316 	blt	r2,zero,8060f8 <___vfprintf_internal_r+0x1720>
  804f2c:	d9002a17 	ldw	r4,168(sp)
  804f30:	df002783 	ldbu	fp,158(sp)
  804f34:	2003e416 	blt	r4,zero,805ec8 <___vfprintf_internal_r+0x14f0>
  804f38:	00ffdfc4 	movi	r3,-129
  804f3c:	9d84b03a 	or	r2,r19,r22
  804f40:	90e4703a 	and	r18,r18,r3
  804f44:	10018026 	beq	r2,zero,805548 <___vfprintf_internal_r+0xb70>
  804f48:	b003ab26 	beq	r22,zero,805df8 <___vfprintf_internal_r+0x1420>
  804f4c:	dc402915 	stw	r17,164(sp)
  804f50:	dc001e04 	addi	r16,sp,120
  804f54:	b023883a 	mov	r17,r22
  804f58:	402d883a 	mov	r22,r8
  804f5c:	9809883a 	mov	r4,r19
  804f60:	880b883a 	mov	r5,r17
  804f64:	01800284 	movi	r6,10
  804f68:	000f883a 	mov	r7,zero
  804f6c:	080e6fc0 	call	80e6fc <__umoddi3>
  804f70:	10800c04 	addi	r2,r2,48
  804f74:	843fffc4 	addi	r16,r16,-1
  804f78:	9809883a 	mov	r4,r19
  804f7c:	880b883a 	mov	r5,r17
  804f80:	80800005 	stb	r2,0(r16)
  804f84:	01800284 	movi	r6,10
  804f88:	000f883a 	mov	r7,zero
  804f8c:	080e1000 	call	80e100 <__udivdi3>
  804f90:	1027883a 	mov	r19,r2
  804f94:	10c4b03a 	or	r2,r2,r3
  804f98:	1823883a 	mov	r17,r3
  804f9c:	103fef1e 	bne	r2,zero,804f5c <__alt_data_end+0xff804f5c>
  804fa0:	d8c02817 	ldw	r3,160(sp)
  804fa4:	dc402917 	ldw	r17,164(sp)
  804fa8:	b011883a 	mov	r8,r22
  804fac:	1c07c83a 	sub	r3,r3,r16
  804fb0:	d8c02b15 	stw	r3,172(sp)
  804fb4:	00005f06 	br	805134 <___vfprintf_internal_r+0x75c>
  804fb8:	8025883a 	mov	r18,r16
  804fbc:	dc002903 	ldbu	r16,164(sp)
  804fc0:	e011883a 	mov	r8,fp
  804fc4:	84003fcc 	andi	r16,r16,255
  804fc8:	80071e1e 	bne	r16,zero,806c44 <___vfprintf_internal_r+0x226c>
  804fcc:	9080020c 	andi	r2,r18,8
  804fd0:	1004af26 	beq	r2,zero,806290 <___vfprintf_internal_r+0x18b8>
  804fd4:	d9002e17 	ldw	r4,184(sp)
  804fd8:	d9402e17 	ldw	r5,184(sp)
  804fdc:	d8802e17 	ldw	r2,184(sp)
  804fe0:	21000017 	ldw	r4,0(r4)
  804fe4:	29400117 	ldw	r5,4(r5)
  804fe8:	10800204 	addi	r2,r2,8
  804fec:	d9003615 	stw	r4,216(sp)
  804ff0:	d9403815 	stw	r5,224(sp)
  804ff4:	d8802e15 	stw	r2,184(sp)
  804ff8:	d9003617 	ldw	r4,216(sp)
  804ffc:	d9403817 	ldw	r5,224(sp)
  805000:	da003d15 	stw	r8,244(sp)
  805004:	04000044 	movi	r16,1
  805008:	080bddc0 	call	80bddc <__fpclassifyd>
  80500c:	da003d17 	ldw	r8,244(sp)
  805010:	1404441e 	bne	r2,r16,806124 <___vfprintf_internal_r+0x174c>
  805014:	d9003617 	ldw	r4,216(sp)
  805018:	d9403817 	ldw	r5,224(sp)
  80501c:	000d883a 	mov	r6,zero
  805020:	000f883a 	mov	r7,zero
  805024:	080f9a80 	call	80f9a8 <__ledf2>
  805028:	da003d17 	ldw	r8,244(sp)
  80502c:	1005e316 	blt	r2,zero,8067bc <___vfprintf_internal_r+0x1de4>
  805030:	df002783 	ldbu	fp,158(sp)
  805034:	008011c4 	movi	r2,71
  805038:	1445580e 	bge	r2,r17,80659c <___vfprintf_internal_r+0x1bc4>
  80503c:	04002074 	movhi	r16,129
  805040:	840d2904 	addi	r16,r16,13476
  805044:	00c000c4 	movi	r3,3
  805048:	00bfdfc4 	movi	r2,-129
  80504c:	d8c02915 	stw	r3,164(sp)
  805050:	90a4703a 	and	r18,r18,r2
  805054:	d8c02b15 	stw	r3,172(sp)
  805058:	d8002a15 	stw	zero,168(sp)
  80505c:	d8003215 	stw	zero,200(sp)
  805060:	00003a06 	br	80514c <___vfprintf_internal_r+0x774>
  805064:	84000214 	ori	r16,r16,8
  805068:	ac400007 	ldb	r17,0(r21)
  80506c:	003ebc06 	br	804b60 <__alt_data_end+0xff804b60>
  805070:	8025883a 	mov	r18,r16
  805074:	dc002903 	ldbu	r16,164(sp)
  805078:	e011883a 	mov	r8,fp
  80507c:	84003fcc 	andi	r16,r16,255
  805080:	8007001e 	bne	r16,zero,806c84 <___vfprintf_internal_r+0x22ac>
  805084:	94800414 	ori	r18,r18,16
  805088:	9080080c 	andi	r2,r18,32
  80508c:	1002fa26 	beq	r2,zero,805c78 <___vfprintf_internal_r+0x12a0>
  805090:	d9002e17 	ldw	r4,184(sp)
  805094:	d9402a17 	ldw	r5,168(sp)
  805098:	d8002785 	stb	zero,158(sp)
  80509c:	20800204 	addi	r2,r4,8
  8050a0:	24c00017 	ldw	r19,0(r4)
  8050a4:	25800117 	ldw	r22,4(r4)
  8050a8:	2804b116 	blt	r5,zero,806370 <___vfprintf_internal_r+0x1998>
  8050ac:	013fdfc4 	movi	r4,-129
  8050b0:	9d86b03a 	or	r3,r19,r22
  8050b4:	d8802e15 	stw	r2,184(sp)
  8050b8:	9124703a 	and	r18,r18,r4
  8050bc:	1802fb1e 	bne	r3,zero,805cac <___vfprintf_internal_r+0x12d4>
  8050c0:	d8c02a17 	ldw	r3,168(sp)
  8050c4:	0039883a 	mov	fp,zero
  8050c8:	1805e526 	beq	r3,zero,806860 <___vfprintf_internal_r+0x1e88>
  8050cc:	0027883a 	mov	r19,zero
  8050d0:	002d883a 	mov	r22,zero
  8050d4:	dc001e04 	addi	r16,sp,120
  8050d8:	9806d0fa 	srli	r3,r19,3
  8050dc:	b008977a 	slli	r4,r22,29
  8050e0:	b02cd0fa 	srli	r22,r22,3
  8050e4:	9cc001cc 	andi	r19,r19,7
  8050e8:	98800c04 	addi	r2,r19,48
  8050ec:	843fffc4 	addi	r16,r16,-1
  8050f0:	20e6b03a 	or	r19,r4,r3
  8050f4:	80800005 	stb	r2,0(r16)
  8050f8:	9d86b03a 	or	r3,r19,r22
  8050fc:	183ff61e 	bne	r3,zero,8050d8 <__alt_data_end+0xff8050d8>
  805100:	90c0004c 	andi	r3,r18,1
  805104:	18014126 	beq	r3,zero,80560c <___vfprintf_internal_r+0xc34>
  805108:	10803fcc 	andi	r2,r2,255
  80510c:	1080201c 	xori	r2,r2,128
  805110:	10bfe004 	addi	r2,r2,-128
  805114:	00c00c04 	movi	r3,48
  805118:	10c13c26 	beq	r2,r3,80560c <___vfprintf_internal_r+0xc34>
  80511c:	80ffffc5 	stb	r3,-1(r16)
  805120:	d8c02817 	ldw	r3,160(sp)
  805124:	80bfffc4 	addi	r2,r16,-1
  805128:	1021883a 	mov	r16,r2
  80512c:	1887c83a 	sub	r3,r3,r2
  805130:	d8c02b15 	stw	r3,172(sp)
  805134:	d8802b17 	ldw	r2,172(sp)
  805138:	d9002a17 	ldw	r4,168(sp)
  80513c:	1100010e 	bge	r2,r4,805144 <___vfprintf_internal_r+0x76c>
  805140:	2005883a 	mov	r2,r4
  805144:	d8802915 	stw	r2,164(sp)
  805148:	d8003215 	stw	zero,200(sp)
  80514c:	e7003fcc 	andi	fp,fp,255
  805150:	e700201c 	xori	fp,fp,128
  805154:	e73fe004 	addi	fp,fp,-128
  805158:	e0000326 	beq	fp,zero,805168 <___vfprintf_internal_r+0x790>
  80515c:	d8c02917 	ldw	r3,164(sp)
  805160:	18c00044 	addi	r3,r3,1
  805164:	d8c02915 	stw	r3,164(sp)
  805168:	90c0008c 	andi	r3,r18,2
  80516c:	d8c02c15 	stw	r3,176(sp)
  805170:	18000326 	beq	r3,zero,805180 <___vfprintf_internal_r+0x7a8>
  805174:	d8c02917 	ldw	r3,164(sp)
  805178:	18c00084 	addi	r3,r3,2
  80517c:	d8c02915 	stw	r3,164(sp)
  805180:	90c0210c 	andi	r3,r18,132
  805184:	d8c03015 	stw	r3,192(sp)
  805188:	1801c51e 	bne	r3,zero,8058a0 <___vfprintf_internal_r+0xec8>
  80518c:	d9003117 	ldw	r4,196(sp)
  805190:	d8c02917 	ldw	r3,164(sp)
  805194:	20e7c83a 	sub	r19,r4,r3
  805198:	04c1c10e 	bge	zero,r19,8058a0 <___vfprintf_internal_r+0xec8>
  80519c:	02400404 	movi	r9,16
  8051a0:	d8c02017 	ldw	r3,128(sp)
  8051a4:	d8801f17 	ldw	r2,124(sp)
  8051a8:	4cc52f0e 	bge	r9,r19,806668 <___vfprintf_internal_r+0x1c90>
  8051ac:	01402074 	movhi	r5,129
  8051b0:	294d3c84 	addi	r5,r5,13554
  8051b4:	dc403b15 	stw	r17,236(sp)
  8051b8:	d9403515 	stw	r5,212(sp)
  8051bc:	9823883a 	mov	r17,r19
  8051c0:	482d883a 	mov	r22,r9
  8051c4:	9027883a 	mov	r19,r18
  8051c8:	070001c4 	movi	fp,7
  8051cc:	8025883a 	mov	r18,r16
  8051d0:	dc002d17 	ldw	r16,180(sp)
  8051d4:	00000306 	br	8051e4 <___vfprintf_internal_r+0x80c>
  8051d8:	8c7ffc04 	addi	r17,r17,-16
  8051dc:	42000204 	addi	r8,r8,8
  8051e0:	b440130e 	bge	r22,r17,805230 <___vfprintf_internal_r+0x858>
  8051e4:	01002074 	movhi	r4,129
  8051e8:	18c00404 	addi	r3,r3,16
  8051ec:	10800044 	addi	r2,r2,1
  8051f0:	210d3c84 	addi	r4,r4,13554
  8051f4:	41000015 	stw	r4,0(r8)
  8051f8:	45800115 	stw	r22,4(r8)
  8051fc:	d8c02015 	stw	r3,128(sp)
  805200:	d8801f15 	stw	r2,124(sp)
  805204:	e0bff40e 	bge	fp,r2,8051d8 <__alt_data_end+0xff8051d8>
  805208:	d9801e04 	addi	r6,sp,120
  80520c:	b80b883a 	mov	r5,r23
  805210:	8009883a 	mov	r4,r16
  805214:	080c1b80 	call	80c1b8 <__sprint_r>
  805218:	103ef31e 	bne	r2,zero,804de8 <__alt_data_end+0xff804de8>
  80521c:	8c7ffc04 	addi	r17,r17,-16
  805220:	d8c02017 	ldw	r3,128(sp)
  805224:	d8801f17 	ldw	r2,124(sp)
  805228:	da000404 	addi	r8,sp,16
  80522c:	b47fed16 	blt	r22,r17,8051e4 <__alt_data_end+0xff8051e4>
  805230:	9021883a 	mov	r16,r18
  805234:	9825883a 	mov	r18,r19
  805238:	8827883a 	mov	r19,r17
  80523c:	dc403b17 	ldw	r17,236(sp)
  805240:	d9403517 	ldw	r5,212(sp)
  805244:	98c7883a 	add	r3,r19,r3
  805248:	10800044 	addi	r2,r2,1
  80524c:	41400015 	stw	r5,0(r8)
  805250:	44c00115 	stw	r19,4(r8)
  805254:	d8c02015 	stw	r3,128(sp)
  805258:	d8801f15 	stw	r2,124(sp)
  80525c:	010001c4 	movi	r4,7
  805260:	2082c516 	blt	r4,r2,805d78 <___vfprintf_internal_r+0x13a0>
  805264:	df002787 	ldb	fp,158(sp)
  805268:	42000204 	addi	r8,r8,8
  80526c:	e0000c26 	beq	fp,zero,8052a0 <___vfprintf_internal_r+0x8c8>
  805270:	d8801f17 	ldw	r2,124(sp)
  805274:	d9002784 	addi	r4,sp,158
  805278:	18c00044 	addi	r3,r3,1
  80527c:	10800044 	addi	r2,r2,1
  805280:	41000015 	stw	r4,0(r8)
  805284:	01000044 	movi	r4,1
  805288:	41000115 	stw	r4,4(r8)
  80528c:	d8c02015 	stw	r3,128(sp)
  805290:	d8801f15 	stw	r2,124(sp)
  805294:	010001c4 	movi	r4,7
  805298:	20825e16 	blt	r4,r2,805c14 <___vfprintf_internal_r+0x123c>
  80529c:	42000204 	addi	r8,r8,8
  8052a0:	d8802c17 	ldw	r2,176(sp)
  8052a4:	10000c26 	beq	r2,zero,8052d8 <___vfprintf_internal_r+0x900>
  8052a8:	d8801f17 	ldw	r2,124(sp)
  8052ac:	d9002704 	addi	r4,sp,156
  8052b0:	18c00084 	addi	r3,r3,2
  8052b4:	10800044 	addi	r2,r2,1
  8052b8:	41000015 	stw	r4,0(r8)
  8052bc:	01000084 	movi	r4,2
  8052c0:	41000115 	stw	r4,4(r8)
  8052c4:	d8c02015 	stw	r3,128(sp)
  8052c8:	d8801f15 	stw	r2,124(sp)
  8052cc:	010001c4 	movi	r4,7
  8052d0:	20825816 	blt	r4,r2,805c34 <___vfprintf_internal_r+0x125c>
  8052d4:	42000204 	addi	r8,r8,8
  8052d8:	d9003017 	ldw	r4,192(sp)
  8052dc:	00802004 	movi	r2,128
  8052e0:	2081bb26 	beq	r4,r2,8059d0 <___vfprintf_internal_r+0xff8>
  8052e4:	d9402a17 	ldw	r5,168(sp)
  8052e8:	d8802b17 	ldw	r2,172(sp)
  8052ec:	28adc83a 	sub	r22,r5,r2
  8052f0:	0580310e 	bge	zero,r22,8053b8 <___vfprintf_internal_r+0x9e0>
  8052f4:	07000404 	movi	fp,16
  8052f8:	d8801f17 	ldw	r2,124(sp)
  8052fc:	e584360e 	bge	fp,r22,8063d8 <___vfprintf_internal_r+0x1a00>
  805300:	01402074 	movhi	r5,129
  805304:	294d3884 	addi	r5,r5,13538
  805308:	dc402a15 	stw	r17,168(sp)
  80530c:	d9402c15 	stw	r5,176(sp)
  805310:	b023883a 	mov	r17,r22
  805314:	04c001c4 	movi	r19,7
  805318:	a82d883a 	mov	r22,r21
  80531c:	902b883a 	mov	r21,r18
  805320:	8025883a 	mov	r18,r16
  805324:	dc002d17 	ldw	r16,180(sp)
  805328:	00000306 	br	805338 <___vfprintf_internal_r+0x960>
  80532c:	8c7ffc04 	addi	r17,r17,-16
  805330:	42000204 	addi	r8,r8,8
  805334:	e440110e 	bge	fp,r17,80537c <___vfprintf_internal_r+0x9a4>
  805338:	18c00404 	addi	r3,r3,16
  80533c:	10800044 	addi	r2,r2,1
  805340:	45000015 	stw	r20,0(r8)
  805344:	47000115 	stw	fp,4(r8)
  805348:	d8c02015 	stw	r3,128(sp)
  80534c:	d8801f15 	stw	r2,124(sp)
  805350:	98bff60e 	bge	r19,r2,80532c <__alt_data_end+0xff80532c>
  805354:	d9801e04 	addi	r6,sp,120
  805358:	b80b883a 	mov	r5,r23
  80535c:	8009883a 	mov	r4,r16
  805360:	080c1b80 	call	80c1b8 <__sprint_r>
  805364:	103ea01e 	bne	r2,zero,804de8 <__alt_data_end+0xff804de8>
  805368:	8c7ffc04 	addi	r17,r17,-16
  80536c:	d8c02017 	ldw	r3,128(sp)
  805370:	d8801f17 	ldw	r2,124(sp)
  805374:	da000404 	addi	r8,sp,16
  805378:	e47fef16 	blt	fp,r17,805338 <__alt_data_end+0xff805338>
  80537c:	9021883a 	mov	r16,r18
  805380:	a825883a 	mov	r18,r21
  805384:	b02b883a 	mov	r21,r22
  805388:	882d883a 	mov	r22,r17
  80538c:	dc402a17 	ldw	r17,168(sp)
  805390:	d9002c17 	ldw	r4,176(sp)
  805394:	1d87883a 	add	r3,r3,r22
  805398:	10800044 	addi	r2,r2,1
  80539c:	41000015 	stw	r4,0(r8)
  8053a0:	45800115 	stw	r22,4(r8)
  8053a4:	d8c02015 	stw	r3,128(sp)
  8053a8:	d8801f15 	stw	r2,124(sp)
  8053ac:	010001c4 	movi	r4,7
  8053b0:	20821016 	blt	r4,r2,805bf4 <___vfprintf_internal_r+0x121c>
  8053b4:	42000204 	addi	r8,r8,8
  8053b8:	9080400c 	andi	r2,r18,256
  8053bc:	10013a1e 	bne	r2,zero,8058a8 <___vfprintf_internal_r+0xed0>
  8053c0:	d9402b17 	ldw	r5,172(sp)
  8053c4:	d8801f17 	ldw	r2,124(sp)
  8053c8:	44000015 	stw	r16,0(r8)
  8053cc:	1947883a 	add	r3,r3,r5
  8053d0:	10800044 	addi	r2,r2,1
  8053d4:	41400115 	stw	r5,4(r8)
  8053d8:	d8c02015 	stw	r3,128(sp)
  8053dc:	d8801f15 	stw	r2,124(sp)
  8053e0:	010001c4 	movi	r4,7
  8053e4:	2081f516 	blt	r4,r2,805bbc <___vfprintf_internal_r+0x11e4>
  8053e8:	42000204 	addi	r8,r8,8
  8053ec:	9480010c 	andi	r18,r18,4
  8053f0:	90003226 	beq	r18,zero,8054bc <___vfprintf_internal_r+0xae4>
  8053f4:	d9403117 	ldw	r5,196(sp)
  8053f8:	d8802917 	ldw	r2,164(sp)
  8053fc:	28a1c83a 	sub	r16,r5,r2
  805400:	04002e0e 	bge	zero,r16,8054bc <___vfprintf_internal_r+0xae4>
  805404:	04400404 	movi	r17,16
  805408:	d8801f17 	ldw	r2,124(sp)
  80540c:	8c04c40e 	bge	r17,r16,806720 <___vfprintf_internal_r+0x1d48>
  805410:	01402074 	movhi	r5,129
  805414:	294d3c84 	addi	r5,r5,13554
  805418:	d9403515 	stw	r5,212(sp)
  80541c:	048001c4 	movi	r18,7
  805420:	dcc02d17 	ldw	r19,180(sp)
  805424:	00000306 	br	805434 <___vfprintf_internal_r+0xa5c>
  805428:	843ffc04 	addi	r16,r16,-16
  80542c:	42000204 	addi	r8,r8,8
  805430:	8c00130e 	bge	r17,r16,805480 <___vfprintf_internal_r+0xaa8>
  805434:	01002074 	movhi	r4,129
  805438:	18c00404 	addi	r3,r3,16
  80543c:	10800044 	addi	r2,r2,1
  805440:	210d3c84 	addi	r4,r4,13554
  805444:	41000015 	stw	r4,0(r8)
  805448:	44400115 	stw	r17,4(r8)
  80544c:	d8c02015 	stw	r3,128(sp)
  805450:	d8801f15 	stw	r2,124(sp)
  805454:	90bff40e 	bge	r18,r2,805428 <__alt_data_end+0xff805428>
  805458:	d9801e04 	addi	r6,sp,120
  80545c:	b80b883a 	mov	r5,r23
  805460:	9809883a 	mov	r4,r19
  805464:	080c1b80 	call	80c1b8 <__sprint_r>
  805468:	103e5f1e 	bne	r2,zero,804de8 <__alt_data_end+0xff804de8>
  80546c:	843ffc04 	addi	r16,r16,-16
  805470:	d8c02017 	ldw	r3,128(sp)
  805474:	d8801f17 	ldw	r2,124(sp)
  805478:	da000404 	addi	r8,sp,16
  80547c:	8c3fed16 	blt	r17,r16,805434 <__alt_data_end+0xff805434>
  805480:	d9403517 	ldw	r5,212(sp)
  805484:	1c07883a 	add	r3,r3,r16
  805488:	10800044 	addi	r2,r2,1
  80548c:	41400015 	stw	r5,0(r8)
  805490:	44000115 	stw	r16,4(r8)
  805494:	d8c02015 	stw	r3,128(sp)
  805498:	d8801f15 	stw	r2,124(sp)
  80549c:	010001c4 	movi	r4,7
  8054a0:	2080060e 	bge	r4,r2,8054bc <___vfprintf_internal_r+0xae4>
  8054a4:	d9002d17 	ldw	r4,180(sp)
  8054a8:	d9801e04 	addi	r6,sp,120
  8054ac:	b80b883a 	mov	r5,r23
  8054b0:	080c1b80 	call	80c1b8 <__sprint_r>
  8054b4:	103e4c1e 	bne	r2,zero,804de8 <__alt_data_end+0xff804de8>
  8054b8:	d8c02017 	ldw	r3,128(sp)
  8054bc:	d8803117 	ldw	r2,196(sp)
  8054c0:	d9002917 	ldw	r4,164(sp)
  8054c4:	1100010e 	bge	r2,r4,8054cc <___vfprintf_internal_r+0xaf4>
  8054c8:	2005883a 	mov	r2,r4
  8054cc:	d9402f17 	ldw	r5,188(sp)
  8054d0:	288b883a 	add	r5,r5,r2
  8054d4:	d9402f15 	stw	r5,188(sp)
  8054d8:	1801c01e 	bne	r3,zero,805bdc <___vfprintf_internal_r+0x1204>
  8054dc:	a8800007 	ldb	r2,0(r21)
  8054e0:	d8001f15 	stw	zero,124(sp)
  8054e4:	da000404 	addi	r8,sp,16
  8054e8:	103d751e 	bne	r2,zero,804ac0 <__alt_data_end+0xff804ac0>
  8054ec:	a823883a 	mov	r17,r21
  8054f0:	003d8b06 	br	804b20 <__alt_data_end+0xff804b20>
  8054f4:	8025883a 	mov	r18,r16
  8054f8:	dc002903 	ldbu	r16,164(sp)
  8054fc:	e011883a 	mov	r8,fp
  805500:	84003fcc 	andi	r16,r16,255
  805504:	8005e51e 	bne	r16,zero,806c9c <___vfprintf_internal_r+0x22c4>
  805508:	94800414 	ori	r18,r18,16
  80550c:	9080080c 	andi	r2,r18,32
  805510:	10022b26 	beq	r2,zero,805dc0 <___vfprintf_internal_r+0x13e8>
  805514:	d9002e17 	ldw	r4,184(sp)
  805518:	d9402a17 	ldw	r5,168(sp)
  80551c:	d8002785 	stb	zero,158(sp)
  805520:	20c00204 	addi	r3,r4,8
  805524:	24c00017 	ldw	r19,0(r4)
  805528:	25800117 	ldw	r22,4(r4)
  80552c:	28042e16 	blt	r5,zero,8065e8 <___vfprintf_internal_r+0x1c10>
  805530:	013fdfc4 	movi	r4,-129
  805534:	9d84b03a 	or	r2,r19,r22
  805538:	d8c02e15 	stw	r3,184(sp)
  80553c:	9124703a 	and	r18,r18,r4
  805540:	0039883a 	mov	fp,zero
  805544:	103e801e 	bne	r2,zero,804f48 <__alt_data_end+0xff804f48>
  805548:	d9002a17 	ldw	r4,168(sp)
  80554c:	2002e01e 	bne	r4,zero,8060d0 <___vfprintf_internal_r+0x16f8>
  805550:	d8002a15 	stw	zero,168(sp)
  805554:	d8002b15 	stw	zero,172(sp)
  805558:	dc001e04 	addi	r16,sp,120
  80555c:	003ef506 	br	805134 <__alt_data_end+0xff805134>
  805560:	8025883a 	mov	r18,r16
  805564:	dc002903 	ldbu	r16,164(sp)
  805568:	e011883a 	mov	r8,fp
  80556c:	84003fcc 	andi	r16,r16,255
  805570:	8005ba1e 	bne	r16,zero,806c5c <___vfprintf_internal_r+0x2284>
  805574:	01002074 	movhi	r4,129
  805578:	210d2c04 	addi	r4,r4,13488
  80557c:	d9003915 	stw	r4,228(sp)
  805580:	9080080c 	andi	r2,r18,32
  805584:	10006126 	beq	r2,zero,80570c <___vfprintf_internal_r+0xd34>
  805588:	d9402e17 	ldw	r5,184(sp)
  80558c:	2cc00017 	ldw	r19,0(r5)
  805590:	2d800117 	ldw	r22,4(r5)
  805594:	29400204 	addi	r5,r5,8
  805598:	d9402e15 	stw	r5,184(sp)
  80559c:	9080004c 	andi	r2,r18,1
  8055a0:	1001ac26 	beq	r2,zero,805c54 <___vfprintf_internal_r+0x127c>
  8055a4:	9d84b03a 	or	r2,r19,r22
  8055a8:	10038526 	beq	r2,zero,8063c0 <___vfprintf_internal_r+0x19e8>
  8055ac:	d8c02a17 	ldw	r3,168(sp)
  8055b0:	00800c04 	movi	r2,48
  8055b4:	d8802705 	stb	r2,156(sp)
  8055b8:	dc402745 	stb	r17,157(sp)
  8055bc:	d8002785 	stb	zero,158(sp)
  8055c0:	90800094 	ori	r2,r18,2
  8055c4:	18047916 	blt	r3,zero,8067ac <___vfprintf_internal_r+0x1dd4>
  8055c8:	00bfdfc4 	movi	r2,-129
  8055cc:	90a4703a 	and	r18,r18,r2
  8055d0:	94800094 	ori	r18,r18,2
  8055d4:	0039883a 	mov	fp,zero
  8055d8:	d9003917 	ldw	r4,228(sp)
  8055dc:	dc001e04 	addi	r16,sp,120
  8055e0:	988003cc 	andi	r2,r19,15
  8055e4:	b006973a 	slli	r3,r22,28
  8055e8:	2085883a 	add	r2,r4,r2
  8055ec:	9826d13a 	srli	r19,r19,4
  8055f0:	10800003 	ldbu	r2,0(r2)
  8055f4:	b02cd13a 	srli	r22,r22,4
  8055f8:	843fffc4 	addi	r16,r16,-1
  8055fc:	1ce6b03a 	or	r19,r3,r19
  805600:	80800005 	stb	r2,0(r16)
  805604:	9d84b03a 	or	r2,r19,r22
  805608:	103ff51e 	bne	r2,zero,8055e0 <__alt_data_end+0xff8055e0>
  80560c:	d8c02817 	ldw	r3,160(sp)
  805610:	1c07c83a 	sub	r3,r3,r16
  805614:	d8c02b15 	stw	r3,172(sp)
  805618:	003ec606 	br	805134 <__alt_data_end+0xff805134>
  80561c:	8025883a 	mov	r18,r16
  805620:	dc002903 	ldbu	r16,164(sp)
  805624:	e011883a 	mov	r8,fp
  805628:	84003fcc 	andi	r16,r16,255
  80562c:	803e9626 	beq	r16,zero,805088 <__alt_data_end+0xff805088>
  805630:	d8c02b03 	ldbu	r3,172(sp)
  805634:	d8c02785 	stb	r3,158(sp)
  805638:	003e9306 	br	805088 <__alt_data_end+0xff805088>
  80563c:	00c00044 	movi	r3,1
  805640:	d8c02905 	stb	r3,164(sp)
  805644:	00c00ac4 	movi	r3,43
  805648:	d8c02b05 	stb	r3,172(sp)
  80564c:	ac400007 	ldb	r17,0(r21)
  805650:	003d4306 	br	804b60 <__alt_data_end+0xff804b60>
  805654:	84000814 	ori	r16,r16,32
  805658:	ac400007 	ldb	r17,0(r21)
  80565c:	003d4006 	br	804b60 <__alt_data_end+0xff804b60>
  805660:	d8802e17 	ldw	r2,184(sp)
  805664:	8025883a 	mov	r18,r16
  805668:	d8002785 	stb	zero,158(sp)
  80566c:	14000017 	ldw	r16,0(r2)
  805670:	e011883a 	mov	r8,fp
  805674:	14c00104 	addi	r19,r2,4
  805678:	80042d26 	beq	r16,zero,806730 <___vfprintf_internal_r+0x1d58>
  80567c:	d8c02a17 	ldw	r3,168(sp)
  805680:	1803e416 	blt	r3,zero,806614 <___vfprintf_internal_r+0x1c3c>
  805684:	180d883a 	mov	r6,r3
  805688:	000b883a 	mov	r5,zero
  80568c:	8009883a 	mov	r4,r16
  805690:	df003d15 	stw	fp,244(sp)
  805694:	080a3100 	call	80a310 <memchr>
  805698:	da003d17 	ldw	r8,244(sp)
  80569c:	10046826 	beq	r2,zero,806840 <___vfprintf_internal_r+0x1e68>
  8056a0:	1405c83a 	sub	r2,r2,r16
  8056a4:	d8802b15 	stw	r2,172(sp)
  8056a8:	1003e016 	blt	r2,zero,80662c <___vfprintf_internal_r+0x1c54>
  8056ac:	df002783 	ldbu	fp,158(sp)
  8056b0:	d8802915 	stw	r2,164(sp)
  8056b4:	dcc02e15 	stw	r19,184(sp)
  8056b8:	d8002a15 	stw	zero,168(sp)
  8056bc:	d8003215 	stw	zero,200(sp)
  8056c0:	003ea206 	br	80514c <__alt_data_end+0xff80514c>
  8056c4:	8025883a 	mov	r18,r16
  8056c8:	dc002903 	ldbu	r16,164(sp)
  8056cc:	e011883a 	mov	r8,fp
  8056d0:	84003fcc 	andi	r16,r16,255
  8056d4:	803f8d26 	beq	r16,zero,80550c <__alt_data_end+0xff80550c>
  8056d8:	d8c02b03 	ldbu	r3,172(sp)
  8056dc:	d8c02785 	stb	r3,158(sp)
  8056e0:	003f8a06 	br	80550c <__alt_data_end+0xff80550c>
  8056e4:	8025883a 	mov	r18,r16
  8056e8:	dc002903 	ldbu	r16,164(sp)
  8056ec:	e011883a 	mov	r8,fp
  8056f0:	84003fcc 	andi	r16,r16,255
  8056f4:	8005661e 	bne	r16,zero,806c90 <___vfprintf_internal_r+0x22b8>
  8056f8:	01002074 	movhi	r4,129
  8056fc:	210d3104 	addi	r4,r4,13508
  805700:	d9003915 	stw	r4,228(sp)
  805704:	9080080c 	andi	r2,r18,32
  805708:	103f9f1e 	bne	r2,zero,805588 <__alt_data_end+0xff805588>
  80570c:	9080040c 	andi	r2,r18,16
  805710:	1002eb26 	beq	r2,zero,8062c0 <___vfprintf_internal_r+0x18e8>
  805714:	d8802e17 	ldw	r2,184(sp)
  805718:	002d883a 	mov	r22,zero
  80571c:	14c00017 	ldw	r19,0(r2)
  805720:	10800104 	addi	r2,r2,4
  805724:	d8802e15 	stw	r2,184(sp)
  805728:	003f9c06 	br	80559c <__alt_data_end+0xff80559c>
  80572c:	d8802b07 	ldb	r2,172(sp)
  805730:	1002e11e 	bne	r2,zero,8062b8 <___vfprintf_internal_r+0x18e0>
  805734:	00c00044 	movi	r3,1
  805738:	d8c02905 	stb	r3,164(sp)
  80573c:	00c00804 	movi	r3,32
  805740:	d8c02b05 	stb	r3,172(sp)
  805744:	ac400007 	ldb	r17,0(r21)
  805748:	003d0506 	br	804b60 <__alt_data_end+0xff804b60>
  80574c:	84000054 	ori	r16,r16,1
  805750:	ac400007 	ldb	r17,0(r21)
  805754:	003d0206 	br	804b60 <__alt_data_end+0xff804b60>
  805758:	8025883a 	mov	r18,r16
  80575c:	dc002903 	ldbu	r16,164(sp)
  805760:	e011883a 	mov	r8,fp
  805764:	84003fcc 	andi	r16,r16,255
  805768:	803de726 	beq	r16,zero,804f08 <__alt_data_end+0xff804f08>
  80576c:	d8c02b03 	ldbu	r3,172(sp)
  805770:	d8c02785 	stb	r3,158(sp)
  805774:	003de406 	br	804f08 <__alt_data_end+0xff804f08>
  805778:	84001014 	ori	r16,r16,64
  80577c:	ac400007 	ldb	r17,0(r21)
  805780:	003cf706 	br	804b60 <__alt_data_end+0xff804b60>
  805784:	ac400007 	ldb	r17,0(r21)
  805788:	00801b04 	movi	r2,108
  80578c:	88838f26 	beq	r17,r2,8065cc <___vfprintf_internal_r+0x1bf4>
  805790:	84000414 	ori	r16,r16,16
  805794:	003cf206 	br	804b60 <__alt_data_end+0xff804b60>
  805798:	8025883a 	mov	r18,r16
  80579c:	dc002903 	ldbu	r16,164(sp)
  8057a0:	e011883a 	mov	r8,fp
  8057a4:	84003fcc 	andi	r16,r16,255
  8057a8:	80053f1e 	bne	r16,zero,806ca8 <___vfprintf_internal_r+0x22d0>
  8057ac:	9080080c 	andi	r2,r18,32
  8057b0:	1002d226 	beq	r2,zero,8062fc <___vfprintf_internal_r+0x1924>
  8057b4:	d9002e17 	ldw	r4,184(sp)
  8057b8:	d9402f17 	ldw	r5,188(sp)
  8057bc:	20800017 	ldw	r2,0(r4)
  8057c0:	2807d7fa 	srai	r3,r5,31
  8057c4:	21000104 	addi	r4,r4,4
  8057c8:	d9002e15 	stw	r4,184(sp)
  8057cc:	11400015 	stw	r5,0(r2)
  8057d0:	10c00115 	stw	r3,4(r2)
  8057d4:	003cb806 	br	804ab8 <__alt_data_end+0xff804ab8>
  8057d8:	d8c02e17 	ldw	r3,184(sp)
  8057dc:	d9002e17 	ldw	r4,184(sp)
  8057e0:	8025883a 	mov	r18,r16
  8057e4:	18800017 	ldw	r2,0(r3)
  8057e8:	21000104 	addi	r4,r4,4
  8057ec:	00c00044 	movi	r3,1
  8057f0:	e011883a 	mov	r8,fp
  8057f4:	d8c02915 	stw	r3,164(sp)
  8057f8:	d8002785 	stb	zero,158(sp)
  8057fc:	d8801405 	stb	r2,80(sp)
  805800:	d9002e15 	stw	r4,184(sp)
  805804:	d8c02b15 	stw	r3,172(sp)
  805808:	d8002a15 	stw	zero,168(sp)
  80580c:	d8003215 	stw	zero,200(sp)
  805810:	dc001404 	addi	r16,sp,80
  805814:	0039883a 	mov	fp,zero
  805818:	003e5306 	br	805168 <__alt_data_end+0xff805168>
  80581c:	01002074 	movhi	r4,129
  805820:	210d3104 	addi	r4,r4,13508
  805824:	0039883a 	mov	fp,zero
  805828:	d9003915 	stw	r4,228(sp)
  80582c:	04401e04 	movi	r17,120
  805830:	003f6906 	br	8055d8 <__alt_data_end+0xff8055d8>
  805834:	8025883a 	mov	r18,r16
  805838:	dc002903 	ldbu	r16,164(sp)
  80583c:	e011883a 	mov	r8,fp
  805840:	84003fcc 	andi	r16,r16,255
  805844:	8005081e 	bne	r16,zero,806c68 <___vfprintf_internal_r+0x2290>
  805848:	883d6126 	beq	r17,zero,804dd0 <__alt_data_end+0xff804dd0>
  80584c:	00c00044 	movi	r3,1
  805850:	d8c02915 	stw	r3,164(sp)
  805854:	dc401405 	stb	r17,80(sp)
  805858:	d8002785 	stb	zero,158(sp)
  80585c:	003fe906 	br	805804 <__alt_data_end+0xff805804>
  805860:	01402074 	movhi	r5,129
  805864:	294d3104 	addi	r5,r5,13508
  805868:	d9403915 	stw	r5,228(sp)
  80586c:	d8c02e15 	stw	r3,184(sp)
  805870:	1025883a 	mov	r18,r2
  805874:	04401e04 	movi	r17,120
  805878:	9d84b03a 	or	r2,r19,r22
  80587c:	1000fc1e 	bne	r2,zero,805c70 <___vfprintf_internal_r+0x1298>
  805880:	0039883a 	mov	fp,zero
  805884:	00800084 	movi	r2,2
  805888:	10803fcc 	andi	r2,r2,255
  80588c:	00c00044 	movi	r3,1
  805890:	10c20f26 	beq	r2,r3,8060d0 <___vfprintf_internal_r+0x16f8>
  805894:	00c00084 	movi	r3,2
  805898:	10fd3326 	beq	r2,r3,804d68 <__alt_data_end+0xff804d68>
  80589c:	003e0b06 	br	8050cc <__alt_data_end+0xff8050cc>
  8058a0:	d8c02017 	ldw	r3,128(sp)
  8058a4:	003e7106 	br	80526c <__alt_data_end+0xff80526c>
  8058a8:	00801944 	movi	r2,101
  8058ac:	14407e0e 	bge	r2,r17,805aa8 <___vfprintf_internal_r+0x10d0>
  8058b0:	d9003617 	ldw	r4,216(sp)
  8058b4:	d9403817 	ldw	r5,224(sp)
  8058b8:	000d883a 	mov	r6,zero
  8058bc:	000f883a 	mov	r7,zero
  8058c0:	d8c03c15 	stw	r3,240(sp)
  8058c4:	da003d15 	stw	r8,244(sp)
  8058c8:	080f8440 	call	80f844 <__eqdf2>
  8058cc:	d8c03c17 	ldw	r3,240(sp)
  8058d0:	da003d17 	ldw	r8,244(sp)
  8058d4:	1000f71e 	bne	r2,zero,805cb4 <___vfprintf_internal_r+0x12dc>
  8058d8:	d8801f17 	ldw	r2,124(sp)
  8058dc:	01002074 	movhi	r4,129
  8058e0:	210d3804 	addi	r4,r4,13536
  8058e4:	18c00044 	addi	r3,r3,1
  8058e8:	10800044 	addi	r2,r2,1
  8058ec:	41000015 	stw	r4,0(r8)
  8058f0:	01000044 	movi	r4,1
  8058f4:	41000115 	stw	r4,4(r8)
  8058f8:	d8c02015 	stw	r3,128(sp)
  8058fc:	d8801f15 	stw	r2,124(sp)
  805900:	010001c4 	movi	r4,7
  805904:	2082b816 	blt	r4,r2,8063e8 <___vfprintf_internal_r+0x1a10>
  805908:	42000204 	addi	r8,r8,8
  80590c:	d8802617 	ldw	r2,152(sp)
  805910:	d9403317 	ldw	r5,204(sp)
  805914:	11400216 	blt	r2,r5,805920 <___vfprintf_internal_r+0xf48>
  805918:	9080004c 	andi	r2,r18,1
  80591c:	103eb326 	beq	r2,zero,8053ec <__alt_data_end+0xff8053ec>
  805920:	d8803717 	ldw	r2,220(sp)
  805924:	d9003417 	ldw	r4,208(sp)
  805928:	d9403717 	ldw	r5,220(sp)
  80592c:	1887883a 	add	r3,r3,r2
  805930:	d8801f17 	ldw	r2,124(sp)
  805934:	41000015 	stw	r4,0(r8)
  805938:	41400115 	stw	r5,4(r8)
  80593c:	10800044 	addi	r2,r2,1
